# SymbolsHelper-Confirmed: 15.04.2 amd64
libKTpModels.so.9 libktpmodels9 #MINVER#
 _ZN23KPeopleTranslationProxy11qt_metacallEN11QMetaObject4CallEiPPv@Base 15.04.2
 _ZN23KPeopleTranslationProxy11qt_metacastEPKc@Base 15.04.2
 _ZN23KPeopleTranslationProxy16staticMetaObjectE@Base 15.04.2
 _ZN23KPeopleTranslationProxyC1EP7QObject@Base 15.04.2
 _ZN23KPeopleTranslationProxyC2EP7QObject@Base 15.04.2
 _ZN23KPeopleTranslationProxyD0Ev@Base 15.04.2
 _ZN23KPeopleTranslationProxyD1Ev@Base 15.04.2
 _ZN23KPeopleTranslationProxyD2Ev@Base 15.04.2
 _ZN3KTp10RoomsModel11qt_metacallEN11QMetaObject4CallEiPPv@Base 15.04.2
 _ZN3KTp10RoomsModel11qt_metacastEPKc@Base 15.04.2
 _ZN3KTp10RoomsModel16staticMetaObjectE@Base 15.04.2
 _ZN3KTp10RoomsModel17clearRoomInfoListEv@Base 15.04.2
 _ZN3KTp10RoomsModel8addRoomsE5QListIN2Tp8RoomInfoEE@Base 15.04.2
 _ZN3KTp10RoomsModelC1EP7QObject@Base 15.04.2
 _ZN3KTp10RoomsModelC2EP7QObject@Base 15.04.2
 _ZN3KTp10RoomsModelD0Ev@Base 15.04.2
 _ZN3KTp10RoomsModelD1Ev@Base 15.04.2
 _ZN3KTp10RoomsModelD2Ev@Base 15.04.2
 _ZN3KTp13ContactsModel11qt_metacallEN11QMetaObject4CallEiPPv@Base 15.04.2
 _ZN3KTp13ContactsModel11qt_metacastEPKc@Base 15.04.2
 _ZN3KTp13ContactsModel12setGroupModeENS0_9GroupModeE@Base 15.04.2
 _ZN3KTp13ContactsModel16groupModeChangedEv@Base 15.04.2
 _ZN3KTp13ContactsModel16modelInitializedEb@Base 15.04.2
 _ZN3KTp13ContactsModel16staticMetaObjectE@Base 15.04.2
 _ZN3KTp13ContactsModel17setAccountManagerERKN2Tp9SharedPtrINS1_14AccountManagerEEE@Base 15.04.2
 _ZN3KTp13ContactsModel22setTrackUnreadMessagesEb@Base 15.04.2
 _ZN3KTp13ContactsModel22updateGroupProxyModelsEv@Base 15.04.2
 _ZN3KTp13ContactsModel26trackUnreadMessagesChangedEv@Base 15.04.2
 _ZN3KTp13ContactsModelC1EP7QObject@Base 15.04.2
 _ZN3KTp13ContactsModelC2EP7QObject@Base 15.04.2
 _ZN3KTp13ContactsModelD0Ev@Base 15.04.2
 _ZN3KTp13ContactsModelD1Ev@Base 15.04.2
 _ZN3KTp13ContactsModelD2Ev@Base 15.04.2
 _ZN3KTp13PresenceModel11addPresenceERKNS_8PresenceE@Base 15.04.2
 _ZN3KTp13PresenceModel11qt_metacallEN11QMetaObject4CallEiPPv@Base 15.04.2
 _ZN3KTp13PresenceModel11qt_metacastEPKc@Base 15.04.2
 _ZN3KTp13PresenceModel12countChangedEv@Base 15.04.2
 _ZN3KTp13PresenceModel13loadPresencesEv@Base 15.04.2
 _ZN3KTp13PresenceModel14removePresenceERKNS_8PresenceE@Base 15.04.2
 _ZN3KTp13PresenceModel16staticMetaObjectE@Base 15.04.2
 _ZN3KTp13PresenceModel19loadCustomPresencesEv@Base 15.04.2
 _ZN3KTp13PresenceModel20loadDefaultPresencesEv@Base 15.04.2
 _ZN3KTp13PresenceModel20updatePresenceAppletEv@Base 15.04.2
 _ZN3KTp13PresenceModel25syncCustomPresencesToDiskEv@Base 15.04.2
 _ZN3KTp13PresenceModelC1EP7QObject@Base 15.04.2
 _ZN3KTp13PresenceModelC2EP7QObject@Base 15.04.2
 _ZN3KTp13PresenceModelD0Ev@Base 15.04.2
 _ZN3KTp13PresenceModelD1Ev@Base 15.04.2
 _ZN3KTp13PresenceModelD2Ev@Base 15.04.2
 _ZN3KTp17AccountsListModel11qt_metacallEN11QMetaObject4CallEiPPv@Base 15.04.2
 _ZN3KTp17AccountsListModel11qt_metacastEPKc@Base 15.04.2
 _ZN3KTp17AccountsListModel13setAccountSetERKN2Tp9SharedPtrINS1_10AccountSetEEE@Base 15.04.2
 _ZN3KTp17AccountsListModel14onAccountAddedERKN2Tp9SharedPtrINS1_7AccountEEE@Base 15.04.2
 _ZN3KTp17AccountsListModel16onAccountRemovedERKN2Tp9SharedPtrINS1_7AccountEEE@Base 15.04.2
 _ZN3KTp17AccountsListModel16onAccountUpdatedEv@Base 15.04.2
 _ZN3KTp17AccountsListModel16staticMetaObjectE@Base 15.04.2
 _ZN3KTp17AccountsListModel7setDataERK11QModelIndexRK8QVarianti@Base 15.04.2
 _ZN3KTp17AccountsListModelC1EP7QObject@Base 15.04.2
 _ZN3KTp17AccountsListModelC2EP7QObject@Base 15.04.2
 _ZN3KTp17AccountsListModelD0Ev@Base 15.04.2
 _ZN3KTp17AccountsListModelD1Ev@Base 15.04.2
 _ZN3KTp17AccountsListModelD2Ev@Base 15.04.2
 _ZN3KTp17ContactsListModel11qt_metacallEN11QMetaObject4CallEiPPv@Base 15.04.2
 _ZN3KTp17ContactsListModel11qt_metacastEPKc@Base 15.04.2
 _ZN3KTp17ContactsListModel16modelInitializedEb@Base 15.04.2
 _ZN3KTp17ContactsListModel16staticMetaObjectE@Base 15.04.2
 _ZN3KTp17ContactsListModel17onContactsChangedERK4QSetIN2Tp9SharedPtrINS2_7ContactEEEES8_@Base 15.04.2
 _ZN3KTp17ContactsListModel17setAccountManagerERKN2Tp9SharedPtrINS1_14AccountManagerEEE@Base 15.04.2
 _ZN3KTp17ContactsListModel19onConnectionDroppedEv@Base 15.04.2
 _ZN3KTp17ContactsListModel9onChangedEv@Base 15.04.2
 _ZN3KTp17ContactsListModelC1EP7QObject@Base 15.04.2
 _ZN3KTp17ContactsListModelC2EP7QObject@Base 15.04.2
 _ZN3KTp17ContactsListModelD0Ev@Base 15.04.2
 _ZN3KTp17ContactsListModelD1Ev@Base 15.04.2
 _ZN3KTp17ContactsListModelD2Ev@Base 15.04.2
 _ZN3KTp18FavoriteRoomsModel10clearRoomsEv@Base 15.04.2
 _ZN3KTp18FavoriteRoomsModel10removeRoomERK4QMapI7QString8QVariantE@Base 15.04.2
 _ZN3KTp18FavoriteRoomsModel11qt_metacallEN11QMetaObject4CallEiPPv@Base 15.04.2
 _ZN3KTp18FavoriteRoomsModel11qt_metacastEPKc@Base 15.04.2
 _ZN3KTp18FavoriteRoomsModel16staticMetaObjectE@Base 15.04.2
 _ZN3KTp18FavoriteRoomsModel7addRoomERK4QMapI7QString8QVariantE@Base 15.04.2
 _ZN3KTp18FavoriteRoomsModel7setDataERK11QModelIndexRK8QVarianti@Base 15.04.2
 _ZN3KTp18FavoriteRoomsModel8addRoomsE5QListI4QMapI7QString8QVariantEE@Base 15.04.2
 _ZN3KTp18FavoriteRoomsModelC1EP7QObject@Base 15.04.2
 _ZN3KTp18FavoriteRoomsModelC2EP7QObject@Base 15.04.2
 _ZN3KTp18FavoriteRoomsModelD0Ev@Base 15.04.2
 _ZN3KTp18FavoriteRoomsModelD1Ev@Base 15.04.2
 _ZN3KTp18FavoriteRoomsModelD2Ev@Base 15.04.2
 _ZN3KTp19ContactsFilterModel11qt_metacallEN11QMetaObject4CallEiPPv@Base 15.04.2
 _ZN3KTp19ContactsFilterModel11qt_metacastEPKc@Base 15.04.2
 _ZN3KTp19ContactsFilterModel14setSourceModelEP18QAbstractItemModel@Base 15.04.2
 _ZN3KTp19ContactsFilterModel16invalidateFilterEv@Base 15.04.2
 _ZN3KTp19ContactsFilterModel16setAccountFilterERKN2Tp9SharedPtrINS1_7AccountEEE@Base 15.04.2
 _ZN3KTp19ContactsFilterModel16staticMetaObjectE@Base 15.04.2
 _ZN3KTp19ContactsFilterModel17setIdFilterStringERK7QString@Base 15.04.2
 _ZN3KTp19ContactsFilterModel17setSortRoleStringERK7QString@Base 15.04.2
 _ZN3KTp19ContactsFilterModel18clearAccountFilterEv@Base 15.04.2
 _ZN3KTp19ContactsFilterModel19clearIdFilterStringEv@Base 15.04.2
 _ZN3KTp19ContactsFilterModel20accountFilterChangedERKN2Tp9SharedPtrINS1_7AccountEEE@Base 15.04.2
 _ZN3KTp19ContactsFilterModel20setAliasFilterStringERK7QString@Base 15.04.2
 _ZN3KTp19ContactsFilterModel21idFilterStringChangedERK7QString@Base 15.04.2
 _ZN3KTp19ContactsFilterModel21setGlobalFilterStringERK7QString@Base 15.04.2
 _ZN3KTp19ContactsFilterModel21setGroupsFilterStringERK7QString@Base 15.04.2
 _ZN3KTp19ContactsFilterModel21setIdFilterMatchFlagsE6QFlagsIN2Qt9MatchFlagEE@Base 15.04.2
 _ZN3KTp19ContactsFilterModel21setTubesFilterStringsERK11QStringList@Base 15.04.2
 _ZN3KTp19ContactsFilterModel22clearAliasFilterStringEv@Base 15.04.2
 _ZN3KTp19ContactsFilterModel23clearGlobalFilterStringEv@Base 15.04.2
 _ZN3KTp19ContactsFilterModel23clearGroupsFilterStringEv@Base 15.04.2
 _ZN3KTp19ContactsFilterModel23clearTubesFilterStringsEv@Base 15.04.2
 _ZN3KTp19ContactsFilterModel23resetIdFilterMatchFlagsEv@Base 15.04.2
 _ZN3KTp19ContactsFilterModel23setNicknameFilterStringERK7QString@Base 15.04.2
 _ZN3KTp19ContactsFilterModel24aliasFilterStringChangedERK7QString@Base 15.04.2
 _ZN3KTp19ContactsFilterModel24setAliasFilterMatchFlagsE6QFlagsIN2Qt9MatchFlagEE@Base 15.04.2
 _ZN3KTp19ContactsFilterModel24setCapabilityFilterFlagsE6QFlagsINS0_20CapabilityFilterFlagEE@Base 15.04.2
 _ZN3KTp19ContactsFilterModel25clearNicknameFilterStringEv@Base 15.04.2
 _ZN3KTp19ContactsFilterModel25globalFilterStringChangedERK7QString@Base 15.04.2
 _ZN3KTp19ContactsFilterModel25groupsFilterStringChangedERK7QString@Base 15.04.2
 _ZN3KTp19ContactsFilterModel25idFilterMatchFlagsChangedE6QFlagsIN2Qt9MatchFlagEE@Base 15.04.2
 _ZN3KTp19ContactsFilterModel25setGlobalFilterMatchFlagsE6QFlagsIN2Qt9MatchFlagEE@Base 15.04.2
 _ZN3KTp19ContactsFilterModel25setGroupsFilterMatchFlagsE6QFlagsIN2Qt9MatchFlagEE@Base 15.04.2
 _ZN3KTp19ContactsFilterModel25tubesFilterStringsChangedERK11QStringList@Base 15.04.2
 _ZN3KTp19ContactsFilterModel26clearCapabilityFilterFlagsEv@Base 15.04.2
 _ZN3KTp19ContactsFilterModel26resetAliasFilterMatchFlagsEv@Base 15.04.2
 _ZN3KTp19ContactsFilterModel26setDisplayNameFilterStringERK7QString@Base 15.04.2
 _ZN3KTp19ContactsFilterModel26setPresenceTypeFilterFlagsE6QFlagsINS0_22PresenceTypeFilterFlagEE@Base 15.04.2
 _ZN3KTp19ContactsFilterModel27nicknameFilterStringChangedERK7QString@Base 15.04.2
 _ZN3KTp19ContactsFilterModel27resetGlobalFilterMatchFlagsEv@Base 15.04.2
 _ZN3KTp19ContactsFilterModel27resetGroupsFilterMatchFlagsEv@Base 15.04.2
 _ZN3KTp19ContactsFilterModel27setNicknameFilterMatchFlagsE6QFlagsIN2Qt9MatchFlagEE@Base 15.04.2
 _ZN3KTp19ContactsFilterModel28aliasFilterMatchFlagsChangedE6QFlagsIN2Qt9MatchFlagEE@Base 15.04.2
 _ZN3KTp19ContactsFilterModel28capabilityFilterFlagsChangedE6QFlagsINS0_20CapabilityFilterFlagEE@Base 15.04.2
 _ZN3KTp19ContactsFilterModel28clearDisplayNameFilterStringEv@Base 15.04.2
 _ZN3KTp19ContactsFilterModel28clearPresenceTypeFilterFlagsEv@Base 15.04.2
 _ZN3KTp19ContactsFilterModel29globalFilterMatchFlagsChangedE6QFlagsIN2Qt9MatchFlagEE@Base 15.04.2
 _ZN3KTp19ContactsFilterModel29groupsFilterMatchFlagsChangedE6QFlagsIN2Qt9MatchFlagEE@Base 15.04.2
 _ZN3KTp19ContactsFilterModel29resetNicknameFilterMatchFlagsEv@Base 15.04.2
 _ZN3KTp19ContactsFilterModel30displayNameFilterStringChangedERK7QString@Base 15.04.2
 _ZN3KTp19ContactsFilterModel30presenceTypeFilterFlagsChangedE6QFlagsINS0_22PresenceTypeFilterFlagEE@Base 15.04.2
 _ZN3KTp19ContactsFilterModel30setDisplayNameFilterMatchFlagsE6QFlagsIN2Qt9MatchFlagEE@Base 15.04.2
 _ZN3KTp19ContactsFilterModel31nicknameFilterMatchFlagsChangedE6QFlagsIN2Qt9MatchFlagEE@Base 15.04.2
 _ZN3KTp19ContactsFilterModel31setSubscriptionStateFilterFlagsE6QFlagsINS0_27SubscriptionStateFilterFlagEE@Base 15.04.2
 _ZN3KTp19ContactsFilterModel32resetDisplayNameFilterMatchFlagsEv@Base 15.04.2
 _ZN3KTp19ContactsFilterModel33clearSubscriptionStateFilterFlagsEv@Base 15.04.2
 _ZN3KTp19ContactsFilterModel34displayNameFilterMatchFlagsChangedE6QFlagsIN2Qt9MatchFlagEE@Base 15.04.2
 _ZN3KTp19ContactsFilterModel35subscriptionStateFilterFlagsChangedE6QFlagsINS0_27SubscriptionStateFilterFlagEE@Base 15.04.2
 _ZN3KTp19ContactsFilterModel7Private18filterAcceptsGroupERK11QModelIndex@Base 15.04.2
 _ZN3KTp19ContactsFilterModel7Private23sourceModelIndexChangedERK11QModelIndex@Base 15.04.2
 _ZN3KTp19ContactsFilterModel7Private29sourceModelParentIndexChangedERK11QModelIndex@Base 15.04.2
 _ZN3KTp19ContactsFilterModelC1EP7QObject@Base 15.04.2
 _ZN3KTp19ContactsFilterModelC2EP7QObject@Base 15.04.2
 _ZN3KTp19ContactsFilterModelD0Ev@Base 15.04.2
 _ZN3KTp19ContactsFilterModelD1Ev@Base 15.04.2
 _ZN3KTp19ContactsFilterModelD2Ev@Base 15.04.2
 _ZN3KTp20GroupsTreeProxyModel11qt_metacallEN11QMetaObject4CallEiPPv@Base 15.04.2
 _ZN3KTp20GroupsTreeProxyModel11qt_metacastEPKc@Base 15.04.2
 _ZN3KTp20GroupsTreeProxyModel16staticMetaObjectE@Base 15.04.2
 _ZN3KTp20GroupsTreeProxyModelC1EP18QAbstractItemModel@Base 15.04.2
 _ZN3KTp20GroupsTreeProxyModelC2EP18QAbstractItemModel@Base 15.04.2
 _ZN3KTp20GroupsTreeProxyModelD0Ev@Base 15.04.2
 _ZN3KTp20GroupsTreeProxyModelD1Ev@Base 15.04.2
 _ZN3KTp20GroupsTreeProxyModelD2Ev@Base 15.04.2
 _ZN3KTp22AccountsTreeProxyModel11qt_metacallEN11QMetaObject4CallEiPPv@Base 15.04.2
 _ZN3KTp22AccountsTreeProxyModel11qt_metacastEPKc@Base 15.04.2
 _ZN3KTp22AccountsTreeProxyModel14onAccountAddedERKN2Tp9SharedPtrINS1_7AccountEEE@Base 15.04.2
 _ZN3KTp22AccountsTreeProxyModel16onAccountChangedEv@Base 15.04.2
 _ZN3KTp22AccountsTreeProxyModel16onAccountRemovedERKN2Tp9SharedPtrINS1_7AccountEEE@Base 15.04.2
 _ZN3KTp22AccountsTreeProxyModel16staticMetaObjectE@Base 15.04.2
 _ZN3KTp22AccountsTreeProxyModelC1EP18QAbstractItemModelRKN2Tp9SharedPtrINS3_14AccountManagerEEE@Base 15.04.2
 _ZN3KTp22AccountsTreeProxyModelC2EP18QAbstractItemModelRKN2Tp9SharedPtrINS3_14AccountManagerEEE@Base 15.04.2
 _ZN3KTp22AccountsTreeProxyModelD0Ev@Base 15.04.2
 _ZN3KTp22AccountsTreeProxyModelD1Ev@Base 15.04.2
 _ZN3KTp22AccountsTreeProxyModelD2Ev@Base 15.04.2
 _ZN3KTp26AbstractGroupingProxyModel10forceGroupERK7QString@Base 15.04.2
 _ZN3KTp26AbstractGroupingProxyModel11qt_metacallEN11QMetaObject4CallEiPPv@Base 15.04.2
 _ZN3KTp26AbstractGroupingProxyModel11qt_metacastEPKc@Base 15.04.2
 _ZN3KTp26AbstractGroupingProxyModel12addProxyNodeERK11QModelIndexP13QStandardItem@Base 15.04.2
 _ZN3KTp26AbstractGroupingProxyModel12groupChangedERK7QString@Base 15.04.2
 _ZN3KTp26AbstractGroupingProxyModel12itemForGroupERK7QString@Base 15.04.2
 _ZN3KTp26AbstractGroupingProxyModel12onModelResetEv@Base 15.04.2
 _ZN3KTp26AbstractGroupingProxyModel12unforceGroupERK7QString@Base 15.04.2
 _ZN3KTp26AbstractGroupingProxyModel13onDataChangedERK11QModelIndexS3_@Base 15.04.2
 _ZN3KTp26AbstractGroupingProxyModel13onRowsRemovedERK11QModelIndexii@Base 15.04.2
 _ZN3KTp26AbstractGroupingProxyModel14onRowsInsertedERK11QModelIndexii@Base 15.04.2
 _ZN3KTp26AbstractGroupingProxyModel16removeProxyNodesERK11QModelIndexRK5QListIP9ProxyNodeE@Base 15.04.2
 _ZN3KTp26AbstractGroupingProxyModel16staticMetaObjectE@Base 15.04.2
 _ZN3KTp26AbstractGroupingProxyModel6onLoadEv@Base 15.04.2
 _ZN3KTp26AbstractGroupingProxyModelC1EP18QAbstractItemModel@Base 15.04.2
 _ZN3KTp26AbstractGroupingProxyModelC2EP18QAbstractItemModel@Base 15.04.2
 _ZN3KTp26AbstractGroupingProxyModelD0Ev@Base 15.04.2
 _ZN3KTp26AbstractGroupingProxyModelD1Ev@Base 15.04.2
 _ZN3KTp26AbstractGroupingProxyModelD2Ev@Base 15.04.2
 _ZN3KTp28TextChannelWatcherProxyModel11qt_metacallEN11QMetaObject4CallEiPPv@Base 15.04.2
 _ZN3KTp28TextChannelWatcherProxyModel11qt_metacastEPKc@Base 15.04.2
 _ZN3KTp28TextChannelWatcherProxyModel15observeChannelsERKN2Tp26MethodInvocationContextPtrINS1_28MethodInvocationContextTypes3NilES4_S4_S4_S4_S4_S4_S4_EERKNS1_9SharedPtrINS1_7AccountEEERKNS8_INS1_10ConnectionEEERK5QListINS8_INS1_7ChannelEEEERKNS8_INS1_24ChannelDispatchOperationEEERKSH_INS8_INS1_14ChannelRequestEEEERKNS1_22AbstractClientObserver12ObserverInfoE@Base 15.04.2
 _ZN3KTp28TextChannelWatcherProxyModel16staticMetaObjectE@Base 15.04.2
 _ZN3KTp28TextChannelWatcherProxyModel20onChannelInvalidatedEv@Base 15.04.2
 _ZN3KTp28TextChannelWatcherProxyModel24onChannelMessagesChangedEv@Base 15.04.2
 _ZN3KTp28TextChannelWatcherProxyModelC1EP7QObject@Base 15.04.2
 _ZN3KTp28TextChannelWatcherProxyModelC2EP7QObject@Base 15.04.2
 _ZN3KTp28TextChannelWatcherProxyModelD0Ev@Base 15.04.2
 _ZN3KTp28TextChannelWatcherProxyModelD1Ev@Base 15.04.2
 _ZN3KTp28TextChannelWatcherProxyModelD2Ev@Base 15.04.2
 _ZNK23KPeopleTranslationProxy10metaObjectEv@Base 15.04.2
 _ZNK23KPeopleTranslationProxy13contactPixmapERK11QModelIndex@Base 15.04.2
 _ZNK23KPeopleTranslationProxy16filterAcceptsRowEiRK11QModelIndex@Base 15.04.2
 _ZNK23KPeopleTranslationProxy17dataForKTpContactERK7QStringS2_i@Base 15.04.2
 _ZNK23KPeopleTranslationProxy17translatePresenceERK8QVariant@Base 15.04.2
 _ZNK23KPeopleTranslationProxy4dataERK11QModelIndexi@Base 15.04.2
 _ZNK3KTp10RoomsModel10headerDataEiN2Qt11OrientationEi@Base 15.04.2
 _ZNK3KTp10RoomsModel10metaObjectEv@Base 15.04.2
 _ZNK3KTp10RoomsModel11columnCountERK11QModelIndex@Base 15.04.2
 _ZNK3KTp10RoomsModel4dataERK11QModelIndexi@Base 15.04.2
 _ZNK3KTp10RoomsModel8rowCountERK11QModelIndex@Base 15.04.2
 _ZNK3KTp13ContactsModel10metaObjectEv@Base 15.04.2
 _ZNK3KTp13ContactsModel14accountManagerEv@Base 15.04.2
 _ZNK3KTp13ContactsModel19trackUnreadMessagesEv@Base 15.04.2
 _ZNK3KTp13ContactsModel9groupModeEv@Base 15.04.2
 _ZNK3KTp13ContactsModel9roleNamesEv@Base 15.04.2
 _ZNK3KTp13PresenceModel10metaObjectEv@Base 15.04.2
 _ZNK3KTp13PresenceModel3getEiRK10QByteArray@Base 15.04.2
 _ZNK3KTp13PresenceModel4dataERK11QModelIndexi@Base 15.04.2
 _ZNK3KTp13PresenceModel4dataEi@Base 15.04.2
 _ZNK3KTp13PresenceModel8rowCountERK11QModelIndex@Base 15.04.2
 _ZNK3KTp13PresenceModel9roleNamesEv@Base 15.04.2
 _ZNK3KTp17AccountsListModel10metaObjectEv@Base 15.04.2
 _ZNK3KTp17AccountsListModel11columnCountERK11QModelIndex@Base 15.04.2
 _ZNK3KTp17AccountsListModel19connectionStateIconERKN2Tp9SharedPtrINS1_7AccountEEE@Base 15.04.2
 _ZNK3KTp17AccountsListModel21connectionStateStringERKN2Tp9SharedPtrINS1_7AccountEEE@Base 15.04.2
 _ZNK3KTp17AccountsListModel22connectionStatusReasonERKN2Tp9SharedPtrINS1_7AccountEEE@Base 15.04.2
 _ZNK3KTp17AccountsListModel4dataERK11QModelIndexi@Base 15.04.2
 _ZNK3KTp17AccountsListModel5indexEiiRK11QModelIndex@Base 15.04.2
 _ZNK3KTp17AccountsListModel8rowCountERK11QModelIndex@Base 15.04.2
 _ZNK3KTp17AccountsListModel9roleNamesEv@Base 15.04.2
 _ZNK3KTp17ContactsListModel10metaObjectEv@Base 15.04.2
 _ZNK3KTp17ContactsListModel4dataERK11QModelIndexi@Base 15.04.2
 _ZNK3KTp17ContactsListModel8rowCountERK11QModelIndex@Base 15.04.2
 _ZNK3KTp18FavoriteRoomsModel10metaObjectEv@Base 15.04.2
 _ZNK3KTp18FavoriteRoomsModel11columnCountERK11QModelIndex@Base 15.04.2
 _ZNK3KTp18FavoriteRoomsModel12containsRoomERK7QStringS3_@Base 15.04.2
 _ZNK3KTp18FavoriteRoomsModel15countForAccountERK7QString@Base 15.04.2
 _ZNK3KTp18FavoriteRoomsModel4dataERK11QModelIndexi@Base 15.04.2
 _ZNK3KTp18FavoriteRoomsModel5flagsERK11QModelIndex@Base 15.04.2
 _ZNK3KTp18FavoriteRoomsModel8rowCountERK11QModelIndex@Base 15.04.2
 _ZNK3KTp19ContactsFilterModel10metaObjectEv@Base 15.04.2
 _ZNK3KTp19ContactsFilterModel13accountFilterEv@Base 15.04.2
 _ZNK3KTp19ContactsFilterModel14idFilterStringEv@Base 15.04.2
 _ZNK3KTp19ContactsFilterModel14sortRoleStringEv@Base 15.04.2
 _ZNK3KTp19ContactsFilterModel16filterAcceptsRowEiRK11QModelIndex@Base 15.04.2
 _ZNK3KTp19ContactsFilterModel17aliasFilterStringEv@Base 15.04.2
 _ZNK3KTp19ContactsFilterModel18globalFilterStringEv@Base 15.04.2
 _ZNK3KTp19ContactsFilterModel18groupsFilterStringEv@Base 15.04.2
 _ZNK3KTp19ContactsFilterModel18idFilterMatchFlagsEv@Base 15.04.2
 _ZNK3KTp19ContactsFilterModel18tubesFilterStringsEv@Base 15.04.2
 _ZNK3KTp19ContactsFilterModel20nicknameFilterStringEv@Base 15.04.2
 _ZNK3KTp19ContactsFilterModel21aliasFilterMatchFlagsEv@Base 15.04.2
 _ZNK3KTp19ContactsFilterModel21capabilityFilterFlagsEv@Base 15.04.2
 _ZNK3KTp19ContactsFilterModel22globalFilterMatchFlagsEv@Base 15.04.2
 _ZNK3KTp19ContactsFilterModel22groupsFilterMatchFlagsEv@Base 15.04.2
 _ZNK3KTp19ContactsFilterModel23displayNameFilterStringEv@Base 15.04.2
 _ZNK3KTp19ContactsFilterModel23presenceTypeFilterFlagsEv@Base 15.04.2
 _ZNK3KTp19ContactsFilterModel24nicknameFilterMatchFlagsEv@Base 15.04.2
 _ZNK3KTp19ContactsFilterModel27displayNameFilterMatchFlagsEv@Base 15.04.2
 _ZNK3KTp19ContactsFilterModel28subscriptionStateFilterFlagsEv@Base 15.04.2
 _ZNK3KTp19ContactsFilterModel4dataERK11QModelIndexi@Base 15.04.2
 _ZNK3KTp19ContactsFilterModel5matchERK11QModelIndexiRK8QVarianti6QFlagsIN2Qt9MatchFlagEE@Base 15.04.2
 _ZNK3KTp19ContactsFilterModel7Private20filterAcceptsAccountERK11QModelIndex@Base 15.04.2
 _ZNK3KTp19ContactsFilterModel7Private20filterAcceptsContactERK11QModelIndex@Base 15.04.2
 _ZNK3KTp19ContactsFilterModel8lessThanERK11QModelIndexS3_@Base 15.04.2
 _ZNK3KTp20GroupsTreeProxyModel10metaObjectEv@Base 15.04.2
 _ZNK3KTp20GroupsTreeProxyModel12dataForGroupERK7QStringi@Base 15.04.2
 _ZNK3KTp20GroupsTreeProxyModel14groupsForIndexERK11QModelIndex@Base 15.04.2
 _ZNK3KTp22AccountsTreeProxyModel10metaObjectEv@Base 15.04.2
 _ZNK3KTp22AccountsTreeProxyModel12dataForGroupERK7QStringi@Base 15.04.2
 _ZNK3KTp22AccountsTreeProxyModel14groupsForIndexERK11QModelIndex@Base 15.04.2
 _ZNK3KTp26AbstractGroupingProxyModel10metaObjectEv@Base 15.04.2
 _ZNK3KTp26AbstractGroupingProxyModel9roleNamesEv@Base 15.04.2
 _ZNK3KTp28TextChannelWatcherProxyModel10metaObjectEv@Base 15.04.2
 _ZNK3KTp28TextChannelWatcherProxyModel4dataERK11QModelIndexi@Base 15.04.2
 _ZTI23KPeopleTranslationProxy@Base 15.04.2
 _ZTIN2Tp10RefCountedE@Base 15.04.2
 _ZTIN3KTp10RoomsModelE@Base 15.04.2
 _ZTIN3KTp13ContactsModelE@Base 15.04.2
 _ZTIN3KTp13PresenceModelE@Base 15.04.2
 _ZTIN3KTp17AccountsListModelE@Base 15.04.2
 _ZTIN3KTp17ContactsListModelE@Base 15.04.2
 _ZTIN3KTp18FavoriteRoomsModelE@Base 15.04.2
 _ZTIN3KTp19ContactsFilterModelE@Base 15.04.2
 _ZTIN3KTp20GroupsTreeProxyModelE@Base 15.04.2
 _ZTIN3KTp22AccountsTreeProxyModelE@Base 15.04.2
 _ZTIN3KTp26AbstractGroupingProxyModelE@Base 15.04.2
 _ZTIN3KTp28TextChannelWatcherProxyModelE@Base 15.04.2
 _ZTS23KPeopleTranslationProxy@Base 15.04.2
 _ZTSN2Tp10RefCountedE@Base 15.04.2
 _ZTSN3KTp10RoomsModelE@Base 15.04.2
 _ZTSN3KTp13ContactsModelE@Base 15.04.2
 _ZTSN3KTp13PresenceModelE@Base 15.04.2
 _ZTSN3KTp17AccountsListModelE@Base 15.04.2
 _ZTSN3KTp17ContactsListModelE@Base 15.04.2
 _ZTSN3KTp18FavoriteRoomsModelE@Base 15.04.2
 _ZTSN3KTp19ContactsFilterModelE@Base 15.04.2
 _ZTSN3KTp20GroupsTreeProxyModelE@Base 15.04.2
 _ZTSN3KTp22AccountsTreeProxyModelE@Base 15.04.2
 _ZTSN3KTp26AbstractGroupingProxyModelE@Base 15.04.2
 _ZTSN3KTp28TextChannelWatcherProxyModelE@Base 15.04.2
 _ZTTN3KTp28TextChannelWatcherProxyModelE@Base 15.04.2
 _ZTV23KPeopleTranslationProxy@Base 15.04.2
 _ZTVN2Tp10RefCountedE@Base 15.04.2
 _ZTVN3KTp10RoomsModelE@Base 15.04.2
 _ZTVN3KTp13ContactsModelE@Base 15.04.2
 _ZTVN3KTp13PresenceModelE@Base 15.04.2
 _ZTVN3KTp17AccountsListModelE@Base 15.04.2
 _ZTVN3KTp17ContactsListModelE@Base 15.04.2
 _ZTVN3KTp18FavoriteRoomsModelE@Base 15.04.2
 _ZTVN3KTp19ContactsFilterModelE@Base 15.04.2
 _ZTVN3KTp20GroupsTreeProxyModelE@Base 15.04.2
 _ZTVN3KTp22AccountsTreeProxyModelE@Base 15.04.2
 _ZTVN3KTp26AbstractGroupingProxyModelE@Base 15.04.2
 _ZTVN3KTp28TextChannelWatcherProxyModelE@Base 15.04.2
 (c++)"non-virtual thunk to KTp::TextChannelWatcherProxyModel::observeChannels(Tp::MethodInvocationContextPtr<Tp::MethodInvocationContextTypes::Nil, Tp::MethodInvocationContextTypes::Nil, Tp::MethodInvocationContextTypes::Nil, Tp::MethodInvocationContextTypes::Nil, Tp::MethodInvocationContextTypes::Nil, Tp::MethodInvocationContextTypes::Nil, Tp::MethodInvocationContextTypes::Nil, Tp::MethodInvocationContextTypes::Nil> const&, Tp::SharedPtr<Tp::Account> const&, Tp::SharedPtr<Tp::Connection> const&, QList<Tp::SharedPtr<Tp::Channel> > const&, Tp::SharedPtr<Tp::ChannelDispatchOperation> const&, QList<Tp::SharedPtr<Tp::ChannelRequest> > const&, Tp::AbstractClientObserver::ObserverInfo const&)@Base" 15.04.2
 (c++)"non-virtual thunk to KTp::TextChannelWatcherProxyModel::~TextChannelWatcherProxyModel()@Base" 15.04.2
 (c++)"virtual thunk to KTp::TextChannelWatcherProxyModel::~TextChannelWatcherProxyModel()@Base" 15.04.2
