# SymbolsHelper-Confirmed: 16.08.1 amd64 armhf i386
ktploggerplugin_tplogger.so libktplogger9 #MINVER#
 _ZTIN3Tpl5EventE@Base 15.04.3
 _ZTIN3Tpl9TextEventE@Base 15.04.3
 _ZTSN3Tpl5EventE@Base 15.04.3
 _ZTSN3Tpl9TextEventE@Base 15.04.3
 qt_plugin_instance@Base 15.04.3
 qt_plugin_query_metadata@Base 15.04.3
libKTpLogger.so.9 libktplogger9 #MINVER#
 _ZN17ScrollbackManager11qt_metacallEN11QMetaObject4CallEiPPv@Base 15.04.2
 _ZN17ScrollbackManager11qt_metacastEPKc@Base 15.04.2
 _ZN17ScrollbackManager12fetchHistoryEi@Base 15.04.2
 _ZN17ScrollbackManager14setTextChannelERKN2Tp9SharedPtrINS0_7AccountEEERKNS1_INS0_11TextChannelEEE@Base 15.04.2
 _ZN17ScrollbackManager15fetchScrollbackEv@Base 15.04.2
 _ZN17ScrollbackManager15onDatesFinishedEPN3KTp22PendingLoggerOperationE@Base 15.04.2
 _ZN17ScrollbackManager16onEventsFinishedEPN3KTp22PendingLoggerOperationE@Base 15.04.2
 _ZN17ScrollbackManager16staticMetaObjectE@Base 15.04.2
 _ZN17ScrollbackManager19setScrollbackLengthEi@Base 15.04.2
 _ZN17ScrollbackManager7fetchedERK5QListIN3KTp7MessageEE@Base 15.04.2
 _ZN17ScrollbackManagerC1EP7QObject@Base 15.04.2
 _ZN17ScrollbackManagerC2EP7QObject@Base 15.04.2
 _ZN17ScrollbackManagerD0Ev@Base 15.04.2
 _ZN17ScrollbackManagerD1Ev@Base 15.04.2
 _ZN17ScrollbackManagerD2Ev@Base 15.04.2
 _ZN3KTp10LogManager10queryDatesERKN2Tp9SharedPtrINS1_7AccountEEERKNS_9LogEntityE@Base 15.04.2
 _ZN3KTp10LogManager11qt_metacallEN11QMetaObject4CallEiPPv@Base 15.04.2
 _ZN3KTp10LogManager11qt_metacastEPKc@Base 15.04.2
 _ZN3KTp10LogManager13queryEntitiesERKN2Tp9SharedPtrINS1_7AccountEEE@Base 15.04.2
 _ZN3KTp10LogManager16clearAccountLogsERKN2Tp9SharedPtrINS1_7AccountEEE@Base 15.04.2
 _ZN3KTp10LogManager16clearContactLogsERKN2Tp9SharedPtrINS1_7AccountEEERKNS_9LogEntityE@Base 15.04.2
 _ZN3KTp10LogManager16staticMetaObjectE@Base 15.04.2
 _ZN3KTp10LogManager17setAccountManagerERKN2Tp9SharedPtrINS1_14AccountManagerEEE@Base 15.04.2
 _ZN3KTp10LogManager6searchERK7QString@Base 15.04.2
 _ZN3KTp10LogManager7Private11loadPluginsEv@Base 15.04.2
 _ZN3KTp10LogManager7Private20s_logManagerInstanceE@Base 15.04.2
 _ZN3KTp10LogManager7PrivateC1EPS0_@Base 15.04.2
 _ZN3KTp10LogManager7PrivateC2EPS0_@Base 15.04.2
 _ZN3KTp10LogManager8instanceEv@Base 15.04.2
 _ZN3KTp10LogManager9logsExistERKN2Tp9SharedPtrINS1_7AccountEEERKNS_9LogEntityE@Base 15.04.2
 _ZN3KTp10LogManager9queryLogsERKN2Tp9SharedPtrINS1_7AccountEEERKNS_9LogEntityERK5QDate@Base 15.04.2
 _ZN3KTp10LogManagerC1Ev@Base 15.04.2
 _ZN3KTp10LogManagerC2Ev@Base 15.04.2
 _ZN3KTp10LogManagerD0Ev@Base 15.04.2
 _ZN3KTp10LogManagerD1Ev@Base 15.04.2
 _ZN3KTp10LogManagerD2Ev@Base 15.04.2
 _ZN3KTp10LogMessageC1ERKNS_9LogEntityERKN2Tp9SharedPtrINS4_7AccountEEERK9QDateTimeRK7QStringSF_@Base 15.04.2
 _ZN3KTp10LogMessageC1ERKS0_@Base 15.04.2
 _ZN3KTp10LogMessageC2ERKNS_9LogEntityERKN2Tp9SharedPtrINS4_7AccountEEERK9QDateTimeRK7QStringSF_@Base 15.04.2
 _ZN3KTp10LogMessageC2ERKS0_@Base 15.04.2
 _ZN3KTp10LogMessageD0Ev@Base 15.04.2
 _ZN3KTp10LogMessageD1Ev@Base 15.04.2
 _ZN3KTp10LogMessageD2Ev@Base 15.04.2
 _ZN3KTp12LogSearchHitC1ERKN2Tp9SharedPtrINS1_7AccountEEERKNS_9LogEntityERK5QDate@Base 15.04.2
 _ZN3KTp12LogSearchHitC1ERKS0_@Base 15.04.2
 _ZN3KTp12LogSearchHitC2ERKN2Tp9SharedPtrINS1_7AccountEEERKNS_9LogEntityERK5QDate@Base 15.04.2
 _ZN3KTp12LogSearchHitC2ERKS0_@Base 15.04.2
 _ZN3KTp12LogSearchHitD1Ev@Base 15.04.2
 _ZN3KTp12LogSearchHitD2Ev@Base 15.04.2
 _ZN3KTp12LogSearchHitaSERKS0_@Base 15.04.2
 _ZN3KTp17PendingLoggerLogs10appendLogsERK5QListINS_10LogMessageEE@Base 15.04.2
 _ZN3KTp17PendingLoggerLogs11qt_metacallEN11QMetaObject4CallEiPPv@Base 15.04.2
 _ZN3KTp17PendingLoggerLogs11qt_metacastEPKc@Base 15.04.2
 _ZN3KTp17PendingLoggerLogs16staticMetaObjectE@Base 15.04.2
 _ZN3KTp17PendingLoggerLogsC1ERKN2Tp9SharedPtrINS1_7AccountEEERKNS_9LogEntityERK5QDateP7QObject@Base 15.04.2
 _ZN3KTp17PendingLoggerLogsC2ERKN2Tp9SharedPtrINS1_7AccountEEERKNS_9LogEntityERK5QDateP7QObject@Base 15.04.2
 _ZN3KTp17PendingLoggerLogsD0Ev@Base 15.04.2
 _ZN3KTp17PendingLoggerLogsD1Ev@Base 15.04.2
 _ZN3KTp17PendingLoggerLogsD2Ev@Base 15.04.2
 _ZN3KTp18PendingLoggerDates11qt_metacallEN11QMetaObject4CallEiPPv@Base 15.04.2
 _ZN3KTp18PendingLoggerDates11qt_metacastEPKc@Base 15.04.2
 _ZN3KTp18PendingLoggerDates16staticMetaObjectE@Base 15.04.2
 _ZN3KTp18PendingLoggerDates8setDatesERK5QListI5QDateE@Base 15.04.2
 _ZN3KTp18PendingLoggerDatesC1ERKN2Tp9SharedPtrINS1_7AccountEEERKNS_9LogEntityEP7QObject@Base 15.04.2
 _ZN3KTp18PendingLoggerDatesC2ERKN2Tp9SharedPtrINS1_7AccountEEERKNS_9LogEntityEP7QObject@Base 15.04.2
 _ZN3KTp18PendingLoggerDatesD0Ev@Base 15.04.2
 _ZN3KTp18PendingLoggerDatesD1Ev@Base 15.04.2
 _ZN3KTp18PendingLoggerDatesD2Ev@Base 15.04.2
 _ZN3KTp19PendingLoggerSearch11qt_metacallEN11QMetaObject4CallEiPPv@Base 15.04.2
 _ZN3KTp19PendingLoggerSearch11qt_metacastEPKc@Base 15.04.2
 _ZN3KTp19PendingLoggerSearch15appendSearchHitERKNS_12LogSearchHitE@Base 15.04.2
 _ZN3KTp19PendingLoggerSearch16appendSearchHitsERK5QListINS_12LogSearchHitEE@Base 15.04.2
 _ZN3KTp19PendingLoggerSearch16staticMetaObjectE@Base 15.04.2
 _ZN3KTp19PendingLoggerSearchC1ERK7QStringP7QObject@Base 15.04.2
 _ZN3KTp19PendingLoggerSearchC2ERK7QStringP7QObject@Base 15.04.2
 _ZN3KTp19PendingLoggerSearchD0Ev@Base 15.04.2
 _ZN3KTp19PendingLoggerSearchD1Ev@Base 15.04.2
 _ZN3KTp19PendingLoggerSearchD2Ev@Base 15.04.2
 _ZN3KTp20AbstractLoggerPlugin11qt_metacallEN11QMetaObject4CallEiPPv@Base 15.04.2
 _ZN3KTp20AbstractLoggerPlugin11qt_metacastEPKc@Base 15.04.2
 _ZN3KTp20AbstractLoggerPlugin14handlesAccountERKN2Tp9SharedPtrINS1_7AccountEEE@Base 15.04.2
 _ZN3KTp20AbstractLoggerPlugin16staticMetaObjectE@Base 15.04.2
 _ZN3KTp20AbstractLoggerPlugin17setAccountManagerERKN2Tp9SharedPtrINS1_14AccountManagerEEE@Base 15.04.2
 _ZN3KTp20AbstractLoggerPluginC1EP7QObject@Base 15.04.2
 _ZN3KTp20AbstractLoggerPluginC2EP7QObject@Base 15.04.2
 _ZN3KTp20AbstractLoggerPluginD0Ev@Base 15.04.2
 _ZN3KTp20AbstractLoggerPluginD1Ev@Base 15.04.2
 _ZN3KTp20AbstractLoggerPluginD2Ev@Base 15.04.2
 _ZN3KTp21PendingLoggerEntities11qt_metacallEN11QMetaObject4CallEiPPv@Base 15.04.2
 _ZN3KTp21PendingLoggerEntities11qt_metacastEPKc@Base 15.04.2
 _ZN3KTp21PendingLoggerEntities12appendEntityERKNS_9LogEntityE@Base 15.04.2
 _ZN3KTp21PendingLoggerEntities14appendEntitiesERK5QListINS_9LogEntityEE@Base 15.04.2
 _ZN3KTp21PendingLoggerEntities16staticMetaObjectE@Base 15.04.2
 _ZN3KTp21PendingLoggerEntitiesC1ERKN2Tp9SharedPtrINS1_7AccountEEEP7QObject@Base 15.04.2
 _ZN3KTp21PendingLoggerEntitiesC2ERKN2Tp9SharedPtrINS1_7AccountEEEP7QObject@Base 15.04.2
 _ZN3KTp21PendingLoggerEntitiesD0Ev@Base 15.04.2
 _ZN3KTp21PendingLoggerEntitiesD1Ev@Base 15.04.2
 _ZN3KTp21PendingLoggerEntitiesD2Ev@Base 15.04.2
 _ZN3KTp22PendingLoggerOperation11qt_metacallEN11QMetaObject4CallEiPPv@Base 15.04.2
 _ZN3KTp22PendingLoggerOperation11qt_metacastEPKc@Base 15.04.2
 _ZN3KTp22PendingLoggerOperation12emitFinishedEv@Base 15.04.2
 _ZN3KTp22PendingLoggerOperation16staticMetaObjectE@Base 15.04.2
 _ZN3KTp22PendingLoggerOperation7Private19__k__doEmitFinishedEv@Base 15.04.2
 _ZN3KTp22PendingLoggerOperation7PrivateC1EPS0_@Base 15.04.2
 _ZN3KTp22PendingLoggerOperation7PrivateC2EPS0_@Base 15.04.2
 _ZN3KTp22PendingLoggerOperation8finishedEPS0_@Base 15.04.2
 _ZN3KTp22PendingLoggerOperation8setErrorERK7QString@Base 15.04.2
 _ZN3KTp22PendingLoggerOperationC1EP7QObject@Base 15.04.2
 _ZN3KTp22PendingLoggerOperationC2EP7QObject@Base 15.04.2
 _ZN3KTp22PendingLoggerOperationD0Ev@Base 15.04.2
 _ZN3KTp22PendingLoggerOperationD1Ev@Base 15.04.2
 _ZN3KTp22PendingLoggerOperationD2Ev@Base 15.04.2
 _ZN3KTp9LogEntityC1EN2Tp10HandleTypeERK7QStringS5_@Base 15.04.2
 _ZN3KTp9LogEntityC1ERKS0_@Base 15.04.2
 _ZN3KTp9LogEntityC1Ev@Base 15.04.2
 _ZN3KTp9LogEntityC2EN2Tp10HandleTypeERK7QStringS5_@Base 15.04.2
 _ZN3KTp9LogEntityC2ERKS0_@Base 15.04.2
 _ZN3KTp9LogEntityC2Ev@Base 15.04.2
 _ZN3KTp9LogEntityD1Ev@Base 15.04.2
 _ZN3KTp9LogEntityD2Ev@Base 15.04.2
 _ZN3KTp9LogEntityaSERKS0_@Base 15.04.2
 _ZN3KTp9LogEntityeqERKS0_@Base 15.04.2
 _ZN3KTp9LogEntityneERKS0_@Base 15.04.2
 _ZNK17ScrollbackManager10metaObjectEv@Base 15.04.2
 _ZNK17ScrollbackManager16scrollbackLengthEv@Base 15.04.2
 _ZNK17ScrollbackManager6existsEv@Base 15.04.2
 _ZNK3KTp10LogManager10metaObjectEv@Base 15.04.2
 _ZNK3KTp10LogManager14accountManagerEv@Base 15.04.2
 _ZNK3KTp12LogSearchHit4dateEv@Base 15.04.2
 _ZNK3KTp12LogSearchHit6entityEv@Base 15.04.2
 _ZNK3KTp12LogSearchHit7accountEv@Base 15.04.2
 _ZNK3KTp17PendingLoggerLogs10metaObjectEv@Base 15.04.2
 _ZNK3KTp17PendingLoggerLogs4dateEv@Base 15.04.2
 _ZNK3KTp17PendingLoggerLogs4logsEv@Base 15.04.2
 _ZNK3KTp17PendingLoggerLogs6entityEv@Base 15.04.2
 _ZNK3KTp17PendingLoggerLogs7accountEv@Base 15.04.2
 _ZNK3KTp18PendingLoggerDates10metaObjectEv@Base 15.04.2
 _ZNK3KTp18PendingLoggerDates5datesEv@Base 15.04.2
 _ZNK3KTp18PendingLoggerDates6entityEv@Base 15.04.2
 _ZNK3KTp18PendingLoggerDates7accountEv@Base 15.04.2
 _ZNK3KTp19PendingLoggerSearch10metaObjectEv@Base 15.04.2
 _ZNK3KTp19PendingLoggerSearch10searchHitsEv@Base 15.04.2
 _ZNK3KTp19PendingLoggerSearch4termEv@Base 15.04.2
 _ZNK3KTp20AbstractLoggerPlugin10metaObjectEv@Base 15.04.2
 _ZNK3KTp20AbstractLoggerPlugin14accountManagerEv@Base 15.04.2
 _ZNK3KTp21PendingLoggerEntities10metaObjectEv@Base 15.04.2
 _ZNK3KTp21PendingLoggerEntities7accountEv@Base 15.04.2
 _ZNK3KTp21PendingLoggerEntities8entitiesEv@Base 15.04.2
 _ZNK3KTp22PendingLoggerOperation10metaObjectEv@Base 15.04.2
 _ZNK3KTp22PendingLoggerOperation5errorEv@Base 15.04.2
 _ZNK3KTp22PendingLoggerOperation7pluginsEv@Base 15.04.2
 _ZNK3KTp22PendingLoggerOperation8hasErrorEv@Base 15.04.2
 _ZNK3KTp9LogEntity10entityTypeEv@Base 15.04.2
 _ZNK3KTp9LogEntity2idEv@Base 15.04.2
 _ZNK3KTp9LogEntity5aliasEv@Base 15.04.2
 _ZNK3KTp9LogEntity7isValidEv@Base 15.04.2
 _ZTI17ScrollbackManager@Base 15.04.2
 _ZTIN3KTp10LogManagerE@Base 15.04.2
 _ZTIN3KTp10LogMessageE@Base 15.04.2
 _ZTIN3KTp17PendingLoggerLogsE@Base 15.04.2
 _ZTIN3KTp18PendingLoggerDatesE@Base 15.04.2
 _ZTIN3KTp19PendingLoggerSearchE@Base 15.04.2
 _ZTIN3KTp20AbstractLoggerPluginE@Base 15.04.2
 _ZTIN3KTp21PendingLoggerEntitiesE@Base 15.04.2
 _ZTIN3KTp22PendingLoggerOperationE@Base 15.04.2
 _ZTS17ScrollbackManager@Base 15.04.2
 _ZTSN3KTp10LogManagerE@Base 15.04.2
 _ZTSN3KTp10LogMessageE@Base 15.04.2
 _ZTSN3KTp17PendingLoggerLogsE@Base 15.04.2
 _ZTSN3KTp18PendingLoggerDatesE@Base 15.04.2
 _ZTSN3KTp19PendingLoggerSearchE@Base 15.04.2
 _ZTSN3KTp20AbstractLoggerPluginE@Base 15.04.2
 _ZTSN3KTp21PendingLoggerEntitiesE@Base 15.04.2
 _ZTSN3KTp22PendingLoggerOperationE@Base 15.04.2
 _ZTV17ScrollbackManager@Base 15.04.2
 _ZTVN3KTp10LogManagerE@Base 15.04.2
 _ZTVN3KTp10LogMessageE@Base 15.04.2
 _ZTVN3KTp17PendingLoggerLogsE@Base 15.04.2
 _ZTVN3KTp18PendingLoggerDatesE@Base 15.04.2
 _ZTVN3KTp19PendingLoggerSearchE@Base 15.04.2
 _ZTVN3KTp20AbstractLoggerPluginE@Base 15.04.2
 _ZTVN3KTp21PendingLoggerEntitiesE@Base 15.04.2
 _ZTVN3KTp22PendingLoggerOperationE@Base 15.04.2
