# SymbolsHelper-Confirmed: 0.9.0 amd64
libktpwidgetsprivate.so.8 libktpwidgetsprivate8 #MINVER#
 _ZN3KTp15StartChatDialog10closeEventEP11QCloseEvent@Base 0.9.0
 _ZN3KTp15StartChatDialog11qt_metacallEN11QMetaObject4CallEiPPv@Base 0.9.0
 _ZN3KTp15StartChatDialog11qt_metacastEPKc@Base 0.9.0
 _ZN3KTp15StartChatDialog16staticMetaObjectE@Base 0.9.0
 _ZN3KTp15StartChatDialog6acceptEv@Base 0.9.0
 _ZN3KTp15StartChatDialogC1ERKN2Tp9SharedPtrINS1_14AccountManagerEEEP7QWidget@Base 0.9.0
 _ZN3KTp15StartChatDialogC2ERKN2Tp9SharedPtrINS1_14AccountManagerEEEP7QWidget@Base 0.9.0
 _ZN3KTp15StartChatDialogD0Ev@Base 0.9.0
 _ZN3KTp15StartChatDialogD1Ev@Base 0.9.0
 _ZN3KTp15StartChatDialogD2Ev@Base 0.9.0
 _ZN3KTp16AccountsComboBox11qt_metacallEN11QMetaObject4CallEiPPv@Base 0.9.0
 _ZN3KTp16AccountsComboBox11qt_metacastEPKc@Base 0.9.0
 _ZN3KTp16AccountsComboBox13setAccountSetERKN2Tp9SharedPtrINS1_10AccountSetEEE@Base 0.9.0
 _ZN3KTp16AccountsComboBox14currentAccountEv@Base 0.9.0
 _ZN3KTp16AccountsComboBox16staticMetaObjectE@Base 0.9.0
 _ZN3KTp16AccountsComboBox17setCurrentAccountERK7QString@Base 0.9.0
 _ZN3KTp16AccountsComboBox17setCurrentAccountERKN2Tp9SharedPtrINS1_7AccountEEE@Base 0.9.0
 _ZN3KTp16AccountsComboBoxC1EP7QWidget@Base 0.9.0
 _ZN3KTp16AccountsComboBoxC2EP7QWidget@Base 0.9.0
 _ZN3KTp16AccountsComboBoxD0Ev@Base 0.9.0
 _ZN3KTp16AccountsComboBoxD1Ev@Base 0.9.0
 _ZN3KTp16AccountsComboBoxD2Ev@Base 0.9.0
 _ZN3KTp16AddContactDialog10closeEventEP11QCloseEvent@Base 0.9.0
 _ZN3KTp16AddContactDialog11qt_metacallEN11QMetaObject4CallEiPPv@Base 0.9.0
 _ZN3KTp16AddContactDialog11qt_metacastEPKc@Base 0.9.0
 _ZN3KTp16AddContactDialog16staticMetaObjectE@Base 0.9.0
 _ZN3KTp16AddContactDialog35updateSubscriptionMessageVisibilityEv@Base 0.9.0
 _ZN3KTp16AddContactDialog6acceptEv@Base 0.9.0
 _ZN3KTp16AddContactDialogC1ERKN2Tp9SharedPtrINS1_14AccountManagerEEEP7QWidget@Base 0.9.0
 _ZN3KTp16AddContactDialogC2ERKN2Tp9SharedPtrINS1_14AccountManagerEEEP7QWidget@Base 0.9.0
 _ZN3KTp16AddContactDialogD0Ev@Base 0.9.0
 _ZN3KTp16AddContactDialogD1Ev@Base 0.9.0
 _ZN3KTp16AddContactDialogD2Ev@Base 0.9.0
 _ZN3KTp17ContactGridDialog11qt_metacallEN11QMetaObject4CallEiPPv@Base 0.9.0
 _ZN3KTp17ContactGridDialog11qt_metacastEPKc@Base 0.9.0
 _ZN3KTp17ContactGridDialog16staticMetaObjectE@Base 0.9.0
 _ZN3KTp17ContactGridDialog7Private21_k_onSelectionChangedEv@Base 0.9.0
 _ZN3KTp17ContactGridDialog7Private24_k_onAccountManagerReadyEv@Base 0.9.0
 _ZN3KTp17ContactGridDialog7accountEv@Base 0.9.0
 _ZN3KTp17ContactGridDialog7contactEv@Base 0.9.0
 _ZN3KTp17ContactGridDialogC1EP7QWidget@Base 0.9.0
 _ZN3KTp17ContactGridDialogC2EP7QWidget@Base 0.9.0
 _ZN3KTp17ContactGridDialogD0Ev@Base 0.9.0
 _ZN3KTp17ContactGridDialogD1Ev@Base 0.9.0
 _ZN3KTp17ContactGridDialogD2Ev@Base 0.9.0
 _ZN3KTp17ContactGridWidget11qt_metacallEN11QMetaObject4CallEiPPv@Base 0.9.0
 _ZN3KTp17ContactGridWidget11qt_metacastEPKc@Base 0.9.0
 _ZN3KTp17ContactGridWidget16staticMetaObjectE@Base 0.9.0
 _ZN3KTp17ContactGridWidgetC1EPNS_17ContactsListModelEP7QWidget@Base 0.9.0
 _ZN3KTp17ContactGridWidgetC2EPNS_17ContactsListModelEP7QWidget@Base 0.9.0
 _ZN3KTp17ContactGridWidgetD0Ev@Base 0.9.0
 _ZN3KTp17ContactGridWidgetD1Ev@Base 0.9.0
 _ZN3KTp17ContactGridWidgetD2Ev@Base 0.9.0
 _ZN3KTp17ContactViewWidget11qt_metacallEN11QMetaObject4CallEiPPv@Base 0.9.0
 _ZN3KTp17ContactViewWidget11qt_metacastEPKc@Base 0.9.0
 _ZN3KTp17ContactViewWidget11setIconSizeERK5QSize@Base 0.9.0
 _ZN3KTp17ContactViewWidget11setViewModeEN9QListView8ViewModeE@Base 0.9.0
 _ZN3KTp17ContactViewWidget13selectionModeEv@Base 0.9.0
 _ZN3KTp17ContactViewWidget15iconSizeChangedERK5QSize@Base 0.9.0
 _ZN3KTp17ContactViewWidget16selectionChangedERKN2Tp9SharedPtrINS1_7AccountEEERKNS2_INS_7ContactEEE@Base 0.9.0
 _ZN3KTp17ContactViewWidget16setSelectionModeEN17QAbstractItemView13SelectionModeE@Base 0.9.0
 _ZN3KTp17ContactViewWidget16staticMetaObjectE@Base 0.9.0
 _ZN3KTp17ContactViewWidget20contactDoubleClickedERKN2Tp9SharedPtrINS1_7AccountEEERKNS2_INS_7ContactEEE@Base 0.9.0
 _ZN3KTp17ContactViewWidget20setDisplayNameFilterERK7QString@Base 0.9.0
 _ZN3KTp17ContactViewWidget22clearDisplayNameFilterEv@Base 0.9.0
 _ZN3KTp17ContactViewWidget24displayNameFilterChangedERK7QString@Base 0.9.0
 _ZN3KTp17ContactViewWidget7Private18_k_onDoubleClickedERK11QModelIndex@Base 0.9.0
 _ZN3KTp17ContactViewWidget7Private21_k_onSelectionChangedERK14QItemSelectionS4_@Base 0.9.0
 _ZN3KTp17ContactViewWidgetC1EPNS_17ContactsListModelEP7QWidget@Base 0.9.0
 _ZN3KTp17ContactViewWidgetC2EPNS_17ContactsListModelEP7QWidget@Base 0.9.0
 _ZN3KTp17ContactViewWidgetD0Ev@Base 0.9.0
 _ZN3KTp17ContactViewWidgetD1Ev@Base 0.9.0
 _ZN3KTp17ContactViewWidgetD2Ev@Base 0.9.0
 _ZN3KTp17SettingsKcmDialog11qt_metacallEN11QMetaObject4CallEiPPv@Base 0.9.0
 _ZN3KTp17SettingsKcmDialog11qt_metacastEPKc@Base 0.9.0
 _ZN3KTp17SettingsKcmDialog16staticMetaObjectE@Base 0.9.0
 _ZN3KTp17SettingsKcmDialog22addNotificationsModuleEv@Base 0.9.0
 _ZN3KTp17SettingsKcmDialog24addGeneralSettingsModuleEv@Base 0.9.0
 _ZN3KTp17SettingsKcmDialogC1EP7QWidget@Base 0.9.0
 _ZN3KTp17SettingsKcmDialogC2EP7QWidget@Base 0.9.0
 _ZN3KTp17SettingsKcmDialogD0Ev@Base 0.9.0
 _ZN3KTp17SettingsKcmDialogD1Ev@Base 0.9.0
 _ZN3KTp17SettingsKcmDialogD2Ev@Base 0.9.0
 _ZN3KTp18JoinChatRoomDialog10closeEventEP11QCloseEvent@Base 0.9.0
 _ZN3KTp18JoinChatRoomDialog10onGotRoomsE5QListIN2Tp8RoomInfoEE@Base 0.9.0
 _ZN3KTp18JoinChatRoomDialog11getRoomListEv@Base 0.9.0
 _ZN3KTp18JoinChatRoomDialog11qt_metacallEN11QMetaObject4CallEiPPv@Base 0.9.0
 _ZN3KTp18JoinChatRoomDialog11qt_metacastEPKc@Base 0.9.0
 _ZN3KTp18JoinChatRoomDialog11stopListingEv@Base 0.9.0
 _ZN3KTp18JoinChatRoomDialog13addRecentRoomEv@Base 0.9.0
 _ZN3KTp18JoinChatRoomDialog13onRoomClickedERK11QModelIndex@Base 0.9.0
 _ZN3KTp18JoinChatRoomDialog13onTextChangedE7QString@Base 0.9.0
 _ZN3KTp18JoinChatRoomDialog16clearRecentRoomsEv@Base 0.9.0
 _ZN3KTp18JoinChatRoomDialog16staticMetaObjectE@Base 0.9.0
 _ZN3KTp18JoinChatRoomDialog17loadFavoriteRoomsEv@Base 0.9.0
 _ZN3KTp18JoinChatRoomDialog17setJoinInProgressEb@Base 0.9.0
 _ZN3KTp18JoinChatRoomDialog19onStartChatFinishedEPN2Tp16PendingOperationE@Base 0.9.0
 _ZN3KTp18JoinChatRoomDialog21onAccountManagerReadyEPN2Tp16PendingOperationE@Base 0.9.0
 _ZN3KTp18JoinChatRoomDialog22onRoomListChannelReadyEPN2Tp16PendingOperationE@Base 0.9.0
 _ZN3KTp18JoinChatRoomDialog22sendNotificationToUserERK7QString@Base 0.9.0
 _ZN3KTp18JoinChatRoomDialog23onRoomListChannelClosedEPN2Tp16PendingOperationE@Base 0.9.0
 _ZN3KTp18JoinChatRoomDialog25onAccountSelectionChangedEi@Base 0.9.0
 _ZN3KTp18JoinChatRoomDialog25onFavoriteRoomDataChangedERK11QModelIndexS3_@Base 0.9.0
 _ZN3KTp18JoinChatRoomDialog30onFavoriteRoomSelectionChangedERK11QModelIndexS3_@Base 0.9.0
 _ZN3KTp18JoinChatRoomDialog33onRoomListChannelReadyForHandlingEPN2Tp16PendingOperationE@Base 0.9.0
 _ZN3KTp18JoinChatRoomDialog6acceptEv@Base 0.9.0
 _ZN3KTp18JoinChatRoomDialog9onListingEb@Base 0.9.0
 _ZN3KTp18JoinChatRoomDialogC1EN2Tp9SharedPtrINS1_14AccountManagerEEEP7QWidget@Base 0.9.0
 _ZN3KTp18JoinChatRoomDialogC2EN2Tp9SharedPtrINS1_14AccountManagerEEEP7QWidget@Base 0.9.0
 _ZN3KTp18JoinChatRoomDialogD0Ev@Base 0.9.0
 _ZN3KTp18JoinChatRoomDialogD1Ev@Base 0.9.0
 _ZN3KTp18JoinChatRoomDialogD2Ev@Base 0.9.0
 _ZN3KTp24NotificationConfigDialog10saveConfigEv@Base 0.9.0
 _ZN3KTp24NotificationConfigDialog11onOkClickedEv@Base 0.9.0
 _ZN3KTp24NotificationConfigDialog11qt_metacallEN11QMetaObject4CallEiPPv@Base 0.9.0
 _ZN3KTp24NotificationConfigDialog11qt_metacastEPKc@Base 0.9.0
 _ZN3KTp24NotificationConfigDialog16staticMetaObjectE@Base 0.9.0
 _ZN3KTp24NotificationConfigDialog18updateNotifyWidgetEi@Base 0.9.0
 _ZN3KTp24NotificationConfigDialog8defaultsEv@Base 0.9.0
 _ZN3KTp24NotificationConfigDialogC1ERKN2Tp9SharedPtrINS1_7ContactEEEP7QWidget@Base 0.9.0
 _ZN3KTp24NotificationConfigDialogC2ERKN2Tp9SharedPtrINS1_7ContactEEEP7QWidget@Base 0.9.0
 _ZN3KTp24NotificationConfigDialogD0Ev@Base 0.9.0
 _ZN3KTp24NotificationConfigDialogD1Ev@Base 0.9.0
 _ZN3KTp24NotificationConfigDialogD2Ev@Base 0.9.0
 _ZNK3KTp15StartChatDialog10metaObjectEv@Base 0.9.0
 _ZNK3KTp16AccountsComboBox10metaObjectEv@Base 0.9.0
 _ZNK3KTp16AddContactDialog10metaObjectEv@Base 0.9.0
 _ZNK3KTp17ContactGridDialog10metaObjectEv@Base 0.9.0
 _ZNK3KTp17ContactGridDialog6filterEv@Base 0.9.0
 _ZNK3KTp17ContactGridWidget10metaObjectEv@Base 0.9.0
 _ZNK3KTp17ContactViewWidget10metaObjectEv@Base 0.9.0
 _ZNK3KTp17ContactViewWidget12hasSelectionEv@Base 0.9.0
 _ZNK3KTp17ContactViewWidget15selectedAccountEv@Base 0.9.0
 _ZNK3KTp17ContactViewWidget15selectedContactEv@Base 0.9.0
 _ZNK3KTp17ContactViewWidget16selectedContactsEv@Base 0.9.0
 _ZNK3KTp17ContactViewWidget17displayNameFilterEv@Base 0.9.0
 _ZNK3KTp17ContactViewWidget21contactFilterLineEditEv@Base 0.9.0
 _ZNK3KTp17ContactViewWidget6filterEv@Base 0.9.0
 _ZNK3KTp17ContactViewWidget8iconSizeEv@Base 0.9.0
 _ZNK3KTp17ContactViewWidget8viewModeEv@Base 0.9.0
 _ZNK3KTp17SettingsKcmDialog10metaObjectEv@Base 0.9.0
 _ZNK3KTp18JoinChatRoomDialog10metaObjectEv@Base 0.9.0
 _ZNK3KTp18JoinChatRoomDialog15selectedAccountEv@Base 0.9.0
 _ZNK3KTp18JoinChatRoomDialog16selectedChatRoomEv@Base 0.9.0
 _ZNK3KTp24NotificationConfigDialog10metaObjectEv@Base 0.9.0
 _ZTIN3KTp15StartChatDialogE@Base 0.9.0
 _ZTIN3KTp16AccountsComboBoxE@Base 0.9.0
 _ZTIN3KTp16AddContactDialogE@Base 0.9.0
 _ZTIN3KTp17ContactGridDialogE@Base 0.9.0
 _ZTIN3KTp17ContactGridWidgetE@Base 0.9.0
 _ZTIN3KTp17ContactViewWidgetE@Base 0.9.0
 _ZTIN3KTp17SettingsKcmDialogE@Base 0.9.0
 _ZTIN3KTp18JoinChatRoomDialogE@Base 0.9.0
 _ZTIN3KTp24NotificationConfigDialogE@Base 0.9.0
 _ZTSN3KTp15StartChatDialogE@Base 0.9.0
 _ZTSN3KTp16AccountsComboBoxE@Base 0.9.0
 _ZTSN3KTp16AddContactDialogE@Base 0.9.0
 _ZTSN3KTp17ContactGridDialogE@Base 0.9.0
 _ZTSN3KTp17ContactGridWidgetE@Base 0.9.0
 _ZTSN3KTp17ContactViewWidgetE@Base 0.9.0
 _ZTSN3KTp17SettingsKcmDialogE@Base 0.9.0
 _ZTSN3KTp18JoinChatRoomDialogE@Base 0.9.0
 _ZTSN3KTp24NotificationConfigDialogE@Base 0.9.0
 _ZTVN3KTp15StartChatDialogE@Base 0.9.0
 _ZTVN3KTp16AccountsComboBoxE@Base 0.9.0
 _ZTVN3KTp16AddContactDialogE@Base 0.9.0
 _ZTVN3KTp17ContactGridDialogE@Base 0.9.0
 _ZTVN3KTp17ContactGridWidgetE@Base 0.9.0
 _ZTVN3KTp17ContactViewWidgetE@Base 0.9.0
 _ZTVN3KTp17SettingsKcmDialogE@Base 0.9.0
 _ZTVN3KTp18JoinChatRoomDialogE@Base 0.9.0
 _ZTVN3KTp24NotificationConfigDialogE@Base 0.9.0
 (c++)"non-virtual thunk to KTp::AccountsComboBox::~AccountsComboBox()@Base" 0.9.0
 (c++)"non-virtual thunk to KTp::AddContactDialog::~AddContactDialog()@Base" 0.9.0
 (c++)"non-virtual thunk to KTp::ContactGridDialog::~ContactGridDialog()@Base" 0.9.0
 (c++)"non-virtual thunk to KTp::ContactGridWidget::~ContactGridWidget()@Base" 0.9.0
 (c++)"non-virtual thunk to KTp::ContactViewWidget::~ContactViewWidget()@Base" 0.9.0
 (c++)"non-virtual thunk to KTp::JoinChatRoomDialog::~JoinChatRoomDialog()@Base" 0.9.0
 (c++)"non-virtual thunk to KTp::NotificationConfigDialog::~NotificationConfigDialog()@Base" 0.9.0
 (c++)"non-virtual thunk to KTp::SettingsKcmDialog::~SettingsKcmDialog()@Base" 0.9.0
 (c++)"non-virtual thunk to KTp::StartChatDialog::~StartChatDialog()@Base" 0.9.0
