libktpcommoninternalsprivate.so.5 libktpcommoninternalsprivate5 #MINVER#
 _ZN3KTp10TextParser10s_instanceE@Base 0.6.2
 _ZN3KTp10TextParser14extractUrlDataERK7QStringb@Base 0.6.2
 _ZN3KTp10TextParser8instanceEv@Base 0.6.2
 _ZN3KTp10TextParserC1EP7QObject@Base 0.6.2
 _ZN3KTp10TextParserC2EP7QObject@Base 0.6.2
 _ZN3KTp10TextParserD0Ev@Base 0.6.2
 _ZN3KTp10TextParserD1Ev@Base 0.6.2
 _ZN3KTp10TextParserD2Ev@Base 0.6.2
 (c++|optional=gccinternal)"KTp::TextUrlData::~TextUrlData()@Base" 0.6.2
 _ZN3KTp11WalletUtils18setAccountPasswordERKN2Tp9SharedPtrINS1_7AccountEEERK7QString@Base 0.6.2
 _ZN3KTp11WalletUtils21removeAccountPasswordERKN2Tp9SharedPtrINS1_7AccountEEE@Base 0.6.2
 _ZN3KTp12LogsImporter11qt_metacallEN11QMetaObject4CallEiPPv@Base 0.6.2
 _ZN3KTp12LogsImporter11qt_metacastEPKc@Base 0.6.2
 _ZN3KTp12LogsImporter12logsImportedEv@Base 0.6.2
 _ZN3KTp12LogsImporter13hasKopeteLogsERKN2Tp9SharedPtrINS1_7AccountEEE@Base 0.6.2
 _ZN3KTp12LogsImporter14startLogImportERKN2Tp9SharedPtrINS1_7AccountEEE@Base 0.6.2
 _ZN3KTp12LogsImporter16staticMetaObjectE@Base 0.6.2
 _ZN3KTp12LogsImporter5errorERK7QString@Base 0.6.2
 _ZN3KTp12LogsImporter7Private11qt_metacallEN11QMetaObject4CallEiPPv@Base 0.6.2
 _ZN3KTp12LogsImporter7Private11qt_metacastEPKc@Base 0.6.2
 _ZN3KTp12LogsImporter7Private12setAccountIdERK7QString@Base 0.6.2
 _ZN3KTp12LogsImporter7Private15initKTpDocumentEv@Base 0.6.2
 _ZN3KTp12LogsImporter7Private15saveKTpDocumentEv@Base 0.6.2
 _ZN3KTp12LogsImporter7Private16convertKopeteLogERK7QString@Base 0.6.2
 _ZN3KTp12LogsImporter7Private16staticMetaObjectE@Base 0.6.2
 _ZN3KTp12LogsImporter7Private20convertKopeteMessageERK11QDomElement@Base 0.6.2
 _ZN3KTp12LogsImporter7Private3runEv@Base 0.6.2
 _ZN3KTp12LogsImporter7Private5errorERK7QString@Base 0.6.2
 _ZN3KTp12LogsImporter7PrivateC1EPS0_@Base 0.6.2
 _ZN3KTp12LogsImporter7PrivateC2EPS0_@Base 0.6.2
 _ZN3KTp12LogsImporter7PrivateD0Ev@Base 0.6.2
 _ZN3KTp12LogsImporter7PrivateD1Ev@Base 0.6.2
 _ZN3KTp12LogsImporter7PrivateD2Ev@Base 0.6.2
 _ZN3KTp12LogsImporterC1EP7QObject@Base 0.6.2
 _ZN3KTp12LogsImporterC2EP7QObject@Base 0.6.2
 _ZN3KTp12LogsImporterD0Ev@Base 0.6.2
 _ZN3KTp12LogsImporterD1Ev@Base 0.6.2
 _ZN3KTp12LogsImporterD2Ev@Base 0.6.2
 _ZN3KTp13PendingWallet11qt_metacallEN11QMetaObject4CallEiPPv@Base 0.6.2
 _ZN3KTp13PendingWallet11qt_metacastEPKc@Base 0.6.2
 _ZN3KTp13PendingWallet16staticMetaObjectE@Base 0.6.2
 _ZN3KTp13PendingWalletC1EPNS_15WalletInterfaceE@Base 0.6.2
 _ZN3KTp13PendingWalletC2EPNS_15WalletInterfaceE@Base 0.6.2
 _ZN3KTp13PendingWalletD0Ev@Base 0.6.2
 _ZN3KTp13PendingWalletD1Ev@Base 0.6.2
 _ZN3KTp13PendingWalletD2Ev@Base 0.6.2
 _ZN3KTp14ContactFactory6createERKN2Tp8FeaturesE@Base 0.6.2
 _ZN3KTp14ContactFactoryC1ERKN2Tp8FeaturesE@Base 0.6.2
 _ZN3KTp14ContactFactoryC2ERKN2Tp8FeaturesE@Base 0.6.2
 _ZN3KTp14ContactFactoryD0Ev@Base 0.6.2
 _ZN3KTp14ContactFactoryD1Ev@Base 0.6.2
 _ZN3KTp14ContactFactoryD2Ev@Base 0.6.2
 _ZN3KTp14GlobalPresence11qt_metacallEN11QMetaObject4CallEiPPv@Base 0.6.2
 _ZN3KTp14GlobalPresence11qt_metacastEPKc@Base 0.6.2
 _ZN3KTp14GlobalPresence11setPresenceERKN2Tp8PresenceE@Base 0.6.2
 _ZN3KTp14GlobalPresence14onAccountAddedERKN2Tp9SharedPtrINS1_7AccountEEE@Base 0.6.2
 _ZN3KTp14GlobalPresence16changingPresenceEb@Base 0.6.2
 _ZN3KTp14GlobalPresence16staticMetaObjectE@Base 0.6.2
 _ZN3KTp14GlobalPresence17setAccountManagerERKN2Tp9SharedPtrINS1_14AccountManagerEEE@Base 0.6.2
 _ZN3KTp14GlobalPresence18onChangingPresenceEv@Base 0.6.2
 _ZN3KTp14GlobalPresence19saveCurrentPresenceEv@Base 0.6.2
 _ZN3KTp14GlobalPresence20restoreSavedPresenceEv@Base 0.6.2
 _ZN3KTp14GlobalPresence22currentPresenceChangedERKNS_8PresenceE@Base 0.6.2
 _ZN3KTp14GlobalPresence23connectionStatusChangedEN2Tp16ConnectionStatusE@Base 0.6.2
 _ZN3KTp14GlobalPresence24onCurrentPresenceChangedEv@Base 0.6.2
 _ZN3KTp14GlobalPresence24requestedPresenceChangedERKNS_8PresenceE@Base 0.6.2
 _ZN3KTp14GlobalPresence25onConnectionStatusChangedEv@Base 0.6.2
 _ZN3KTp14GlobalPresence26onRequestedPresenceChangedEv@Base 0.6.2
 _ZN3KTp14GlobalPresenceC1EP7QObject@Base 0.6.2
 _ZN3KTp14GlobalPresenceC2EP7QObject@Base 0.6.2
 _ZN3KTp14GlobalPresenceD0Ev@Base 0.6.2
 _ZN3KTp14GlobalPresenceD1Ev@Base 0.6.2
 _ZN3KTp14GlobalPresenceD2Ev@Base 0.6.2
 _ZN3KTp14MessageContextC1ERKN2Tp9SharedPtrINS1_7AccountEEERKNS2_INS1_11TextChannelEEE@Base 0.6.2
 _ZN3KTp14MessageContextC2ERKN2Tp9SharedPtrINS1_7AccountEEERKNS2_INS1_11TextChannelEEE@Base 0.6.2
 _ZN3KTp14MessageContextD0Ev@Base 0.6.2
 _ZN3KTp14MessageContextD1Ev@Base 0.6.2
 _ZN3KTp14MessageContextD2Ev@Base 0.6.2
 _ZN3KTp15ErrorDictionary24displayShortErrorMessageERK7QString@Base 0.6.2
 _ZN3KTp15ErrorDictionary26displayVerboseErrorMessageERK7QString@Base 0.6.2
 _ZN3KTp15OutgoingMessage7setTextERK7QString@Base 0.6.2
 _ZN3KTp15OutgoingMessage7setTypeEN2Tp22ChannelTextMessageTypeE@Base 0.6.2
 _ZN3KTp15OutgoingMessageC1ERK7QString@Base 0.6.2
 _ZN3KTp15OutgoingMessageC1ERKS0_@Base 0.6.2
 _ZN3KTp15OutgoingMessageC2ERK7QString@Base 0.6.2
 _ZN3KTp15OutgoingMessageC2ERKS0_@Base 0.6.2
 _ZN3KTp15OutgoingMessageD0Ev@Base 0.6.2
 _ZN3KTp15OutgoingMessageD1Ev@Base 0.6.2
 _ZN3KTp15OutgoingMessageD2Ev@Base 0.6.2
 _ZN3KTp15OutgoingMessageaSERKS0_@Base 0.6.2
 _ZN3KTp15WalletInterface10openWalletEv@Base 0.6.2
 _ZN3KTp15WalletInterface11hasPasswordERKN2Tp9SharedPtrINS1_7AccountEEE@Base 0.6.2
 _ZN3KTp15WalletInterface11removeEntryERKN2Tp9SharedPtrINS1_7AccountEEERK7QString@Base 0.6.2
 _ZN3KTp15WalletInterface11setPasswordERKN2Tp9SharedPtrINS1_7AccountEEERK7QString@Base 0.6.2
 _ZN3KTp15WalletInterface13removeAccountERKN2Tp9SharedPtrINS1_7AccountEEE@Base 0.6.2
 _ZN3KTp15WalletInterface14removePasswordERKN2Tp9SharedPtrINS1_7AccountEEE@Base 0.6.2
 _ZN3KTp15WalletInterface15lastLoginFailedERKN2Tp9SharedPtrINS1_7AccountEEE@Base 0.6.2
 _ZN3KTp15WalletInterface16removeAllEntriesERKN2Tp9SharedPtrINS1_7AccountEEE@Base 0.6.2
 _ZN3KTp15WalletInterface18setLastLoginFailedERKN2Tp9SharedPtrINS1_7AccountEEEb@Base 0.6.2
 _ZN3KTp15WalletInterface5entryERKN2Tp9SharedPtrINS1_7AccountEEERK7QString@Base 0.6.2
 _ZN3KTp15WalletInterface6isOpenEv@Base 0.6.2
 _ZN3KTp15WalletInterface8hasEntryERKN2Tp9SharedPtrINS1_7AccountEEERK7QString@Base 0.6.2
 _ZN3KTp15WalletInterface8passwordERKN2Tp9SharedPtrINS1_7AccountEEE@Base 0.6.2
 _ZN3KTp15WalletInterface8setEntryERKN2Tp9SharedPtrINS1_7AccountEEERK7QStringS9_@Base 0.6.2
 _ZN3KTp15WalletInterfaceC1Ev@Base 0.6.2
 _ZN3KTp15WalletInterfaceC2Ev@Base 0.6.2
 _ZN3KTp15WalletInterfaceD0Ev@Base 0.6.2
 _ZN3KTp15WalletInterfaceD1Ev@Base 0.6.2
 _ZN3KTp15WalletInterfaceD2Ev@Base 0.6.2
 _ZN3KTp16MessageProcessor11qt_metacallEN11QMetaObject4CallEiPPv@Base 0.6.2
 _ZN3KTp16MessageProcessor11qt_metacastEPKc@Base 0.6.2
 _ZN3KTp16MessageProcessor16staticMetaObjectE@Base 0.6.2
 _ZN3KTp16MessageProcessor22processIncomingMessageENS_7MessageERKNS_14MessageContextE@Base 0.6.2
 _ZN3KTp16MessageProcessor22processIncomingMessageERKN2Tp15ReceivedMessageERKNS1_9SharedPtrINS1_7AccountEEERKNS5_INS1_11TextChannelEEE@Base 0.6.2
 _ZN3KTp16MessageProcessor22processIncomingMessageERKN2Tp7MessageERKNS1_9SharedPtrINS1_7AccountEEERKNS5_INS1_11TextChannelEEE@Base 0.6.2
 _ZN3KTp16MessageProcessor22processIncomingMessageERKN5QGlib10RefPointerIN3Tpl9TextEventEEERKN2Tp9SharedPtrINS8_7AccountEEERKNS9_INS8_11TextChannelEEE@Base 0.6.2
 _ZN3KTp16MessageProcessor22processOutgoingMessageERK7QStringRKN2Tp9SharedPtrINS4_7AccountEEERKNS5_INS4_11TextChannelEEE@Base 0.6.2
 _ZN3KTp16MessageProcessor6headerEv@Base 0.6.2
 _ZN3KTp16MessageProcessor7Private11loadFiltersEv@Base 0.6.2
 _ZN3KTp16MessageProcessor8instanceEv@Base 0.6.2
 _ZN3KTp16MessageProcessorC1Ev@Base 0.6.2
 _ZN3KTp16MessageProcessorC2Ev@Base 0.6.2
 _ZN3KTp16MessageProcessorD0Ev@Base 0.6.2
 _ZN3KTp16MessageProcessorD1Ev@Base 0.6.2
 _ZN3KTp16MessageProcessorD2Ev@Base 0.6.2
 _ZN3KTp17CircularCountdown10paintEventEP11QPaintEvent@Base 0.6.2
 _ZN3KTp17CircularCountdown11qt_metacallEN11QMetaObject4CallEiPPv@Base 0.6.2
 _ZN3KTp17CircularCountdown11qt_metacastEPKc@Base 0.6.2
 _ZN3KTp17CircularCountdown11setDurationEi@Base 0.6.2
 _ZN3KTp17CircularCountdown16staticMetaObjectE@Base 0.6.2
 _ZN3KTp17CircularCountdown4stopEv@Base 0.6.2
 _ZN3KTp17CircularCountdown5pauseEv@Base 0.6.2
 _ZN3KTp17CircularCountdown5startEv@Base 0.6.2
 _ZN3KTp17CircularCountdown6resumeEv@Base 0.6.2
 _ZN3KTp17CircularCountdown7timeoutEv@Base 0.6.2
 _ZN3KTp17CircularCountdownC1EiP7QWidget@Base 0.6.2
 _ZN3KTp17CircularCountdownC2EiP7QWidget@Base 0.6.2
 _ZN3KTp17CircularCountdownD0Ev@Base 0.6.2
 _ZN3KTp17CircularCountdownD1Ev@Base 0.6.2
 _ZN3KTp17CircularCountdownD2Ev@Base 0.6.2
 _ZN3KTp17ContactInfoDialog11qt_metacallEN11QMetaObject4CallEiPPv@Base 0.6.2
 _ZN3KTp17ContactInfoDialog11qt_metacastEPKc@Base 0.6.2
 _ZN3KTp17ContactInfoDialog16staticMetaObjectE@Base 0.6.2
 _ZN3KTp17ContactInfoDialog17slotButtonClickedEi@Base 0.6.2
 _ZN3KTp17ContactInfoDialog7Private10addInfoRowENS_12InfoRowIndexERK7QString@Base 0.6.2
 _ZN3KTp17ContactInfoDialog7Private11addStateRowERK7QStringN2Tp7Contact13PresenceStateE@Base 0.6.2
 _ZN3KTp17ContactInfoDialog7Private17onContactUpgradedEPN2Tp16PendingOperationE@Base 0.6.2
 _ZN3KTp17ContactInfoDialog7Private17onInfoDataChangedEv@Base 0.6.2
 _ZN3KTp17ContactInfoDialog7Private21onContactInfoReceivedEPN2Tp16PendingOperationE@Base 0.6.2
 _ZN3KTp17ContactInfoDialog7Private26onClearAvatarButtonClickedEv@Base 0.6.2
 _ZN3KTp17ContactInfoDialog7Private27onChangeAvatarButtonClickedEv@Base 0.6.2
 _ZN3KTp17ContactInfoDialogC1ERKN2Tp9SharedPtrINS1_7AccountEEERKNS2_INS1_7ContactEEEP7QWidget@Base 0.6.2
 _ZN3KTp17ContactInfoDialogC2ERKN2Tp9SharedPtrINS1_7AccountEEERKNS2_INS1_7ContactEEEP7QWidget@Base 0.6.2
 _ZN3KTp17ContactInfoDialogD0Ev@Base 0.6.2
 _ZN3KTp17ContactInfoDialogD1Ev@Base 0.6.2
 _ZN3KTp17ContactInfoDialogD2Ev@Base 0.6.2
 _ZN3KTp17PersistentContact11qt_metacallEN11QMetaObject4CallEiPPv@Base 0.6.2
 _ZN3KTp17PersistentContact11qt_metacastEPKc@Base 0.6.2
 _ZN3KTp17PersistentContact14contactChangedEN2Tp9SharedPtrINS_7ContactEEE@Base 0.6.2
 _ZN3KTp17PersistentContact16onContactInvalidEv@Base 0.6.2
 _ZN3KTp17PersistentContact16staticMetaObjectE@Base 0.6.2
 _ZN3KTp17PersistentContact17setAccountManagerERKN2Tp9SharedPtrINS1_14AccountManagerEEE@Base 0.6.2
 _ZN3KTp17PersistentContact25onPendingContactsFinishedEPN2Tp16PendingOperationE@Base 0.6.2
 _ZN3KTp17PersistentContact26onAccountConnectionChangedERKN2Tp9SharedPtrINS1_10ConnectionEEE@Base 0.6.2
 _ZN3KTp17PersistentContact6createERK7QStringS3_@Base 0.6.2
 _ZN3KTp17PersistentContactC1ERK7QStringS3_@Base 0.6.2
 _ZN3KTp17PersistentContactC2ERK7QStringS3_@Base 0.6.2
 _ZN3KTp17PersistentContactD0Ev@Base 0.6.2
 _ZN3KTp17PersistentContactD1Ev@Base 0.6.2
 _ZN3KTp17PersistentContactD2Ev@Base 0.6.2
 _ZN3KTp20GlobalContactManager11qt_metacallEN11QMetaObject4CallEiPPv@Base 0.6.2
 _ZN3KTp20GlobalContactManager11qt_metacastEPKc@Base 0.6.2
 _ZN3KTp20GlobalContactManager12onNewAccountERKN2Tp9SharedPtrINS1_7AccountEEE@Base 0.6.2
 _ZN3KTp20GlobalContactManager16staticMetaObjectE@Base 0.6.2
 _ZN3KTp20GlobalContactManager19onConnectionChangedERKN2Tp9SharedPtrINS1_10ConnectionEEE@Base 0.6.2
 _ZN3KTp20GlobalContactManager21onAccountManagerReadyEPN2Tp16PendingOperationE@Base 0.6.2
 _ZN3KTp20GlobalContactManager23allKnownContactsChangedERK4QSetIN2Tp9SharedPtrINS2_7ContactEEEES8_@Base 0.6.2
 _ZN3KTp20GlobalContactManager28onContactManagerStateChangedEN2Tp16ContactListStateE@Base 0.6.2
 _ZN3KTp20GlobalContactManager28onContactManagerStateChangedERKN2Tp9SharedPtrINS1_14ContactManagerEEENS1_16ContactListStateE@Base 0.6.2
 _ZN3KTp20GlobalContactManager28presencePublicationRequestedE4QSetIN2Tp9SharedPtrINS2_7ContactEEEE@Base 0.6.2
 _ZN3KTp20GlobalContactManagerC1ERKN2Tp9SharedPtrINS1_14AccountManagerEEEP7QObject@Base 0.6.2
 _ZN3KTp20GlobalContactManagerC2ERKN2Tp9SharedPtrINS1_14AccountManagerEEEP7QObject@Base 0.6.2
 _ZN3KTp20GlobalContactManagerD0Ev@Base 0.6.2
 _ZN3KTp20GlobalContactManagerD1Ev@Base 0.6.2
 _ZN3KTp20GlobalContactManagerD2Ev@Base 0.6.2
 _ZN3KTp21AbstractMessageFilter11qt_metacallEN11QMetaObject4CallEiPPv@Base 0.6.2
 _ZN3KTp21AbstractMessageFilter11qt_metacastEPKc@Base 0.6.2
 _ZN3KTp21AbstractMessageFilter13filterMessageERNS_7MessageERKNS_14MessageContextE@Base 0.6.2
 _ZN3KTp21AbstractMessageFilter15requiredScriptsEv@Base 0.6.2
 _ZN3KTp21AbstractMessageFilter16staticMetaObjectE@Base 0.6.2
 _ZN3KTp21AbstractMessageFilter19requiredStylesheetsEv@Base 0.6.2
 _ZN3KTp21AbstractMessageFilter21filterOutgoingMessageERNS_15OutgoingMessageERKNS_14MessageContextE@Base 0.6.2
 _ZN3KTp21AbstractMessageFilterC1EP7QObject@Base 0.6.2
 _ZN3KTp21AbstractMessageFilterC2EP7QObject@Base 0.6.2
 _ZN3KTp21AbstractMessageFilterD0Ev@Base 0.6.2
 _ZN3KTp21AbstractMessageFilterD1Ev@Base 0.6.2
 _ZN3KTp21AbstractMessageFilterD2Ev@Base 0.6.2
 _ZN3KTp26MessageFilterConfigManager4selfEv@Base 0.6.2
 _ZN3KTp26MessageFilterConfigManager7Private13generateCacheEv@Base 0.6.2
 _ZN3KTp26MessageFilterConfigManagerC1Ev@Base 0.6.2
 _ZN3KTp26MessageFilterConfigManagerC2Ev@Base 0.6.2
 _ZN3KTp26MessageFilterConfigManagerD1Ev@Base 0.6.2
 _ZN3KTp26MessageFilterConfigManagerD2Ev@Base 0.6.2
 _ZN3KTp26ServiceAvailabilityChecker10introspectEv@Base 0.6.2
 _ZN3KTp26ServiceAvailabilityChecker11qt_metacallEN11QMetaObject4CallEiPPv@Base 0.6.2
 _ZN3KTp26ServiceAvailabilityChecker11qt_metacastEPKc@Base 0.6.2
 _ZN3KTp26ServiceAvailabilityChecker14onCallFinishedEP23QDBusPendingCallWatcher@Base 0.6.2
 _ZN3KTp26ServiceAvailabilityChecker16staticMetaObjectE@Base 0.6.2
 _ZN3KTp26ServiceAvailabilityChecker21onServiceOwnerChangedERK7QStringS3_S3_@Base 0.6.2
 _ZN3KTp26ServiceAvailabilityCheckerC1ERK7QStringP7QObject@Base 0.6.2
 _ZN3KTp26ServiceAvailabilityCheckerC2ERK7QStringP7QObject@Base 0.6.2
 _ZN3KTp26ServiceAvailabilityCheckerD0Ev@Base 0.6.2
 _ZN3KTp26ServiceAvailabilityCheckerD1Ev@Base 0.6.2
 _ZN3KTp26ServiceAvailabilityCheckerD2Ev@Base 0.6.2
 _ZN3KTp27TelepathyHandlerApplication11jobFinishedEv@Base 0.6.2
 _ZN3KTp27TelepathyHandlerApplication11qt_metacallEN11QMetaObject4CallEiPPv@Base 0.6.2
 _ZN3KTp27TelepathyHandlerApplication11qt_metacastEPKc@Base 0.6.2
 _ZN3KTp27TelepathyHandlerApplication16staticMetaObjectE@Base 0.6.2
 _ZN3KTp27TelepathyHandlerApplication6newJobEv@Base 0.6.2
 _ZN3KTp27TelepathyHandlerApplication7Private12_k_onTimeoutEv@Base 0.6.2
 _ZN3KTp27TelepathyHandlerApplication7Private19_k_onInitialTimeoutEv@Base 0.6.2
 _ZN3KTp27TelepathyHandlerApplication7Private4initEii@Base 0.6.2
 _ZN3KTp27TelepathyHandlerApplication7Private7s_debugE@Base 0.6.2
 _ZN3KTp27TelepathyHandlerApplication7Private8initHackEv@Base 0.6.2
 _ZN3KTp27TelepathyHandlerApplication7Private9s_persistE@Base 0.6.2
 _ZN3KTp27TelepathyHandlerApplication7PrivateC1EPS0_@Base 0.6.2
 _ZN3KTp27TelepathyHandlerApplication7PrivateC2EPS0_@Base 0.6.2
 _ZN3KTp27TelepathyHandlerApplication7PrivateD1Ev@Base 0.6.2
 _ZN3KTp27TelepathyHandlerApplication7PrivateD2Ev@Base 0.6.2
 _ZN3KTp27TelepathyHandlerApplicationC1EP9_XDisplaymmii@Base 0.6.2
 _ZN3KTp27TelepathyHandlerApplicationC1Ebii@Base 0.6.2
 _ZN3KTp27TelepathyHandlerApplicationC2EP9_XDisplaymmii@Base 0.6.2
 _ZN3KTp27TelepathyHandlerApplicationC2Ebii@Base 0.6.2
 _ZN3KTp27TelepathyHandlerApplicationD0Ev@Base 0.6.2
 _ZN3KTp27TelepathyHandlerApplicationD1Ev@Base 0.6.2
 _ZN3KTp27TelepathyHandlerApplicationD2Ev@Base 0.6.2
 _ZN3KTp5Debug15installCallbackEbb@Base 0.6.2
 _ZN3KTp7Actions13openLogViewerERKN2Tp9SharedPtrINS1_7AccountEEERKNS2_INS1_7ContactEEE@Base 0.6.2
 _ZN3KTp7Actions14startAudioCallERKN2Tp9SharedPtrINS1_7AccountEEERKNS2_INS1_7ContactEEE@Base 0.6.2
 _ZN3KTp7Actions14startGroupChatERKN2Tp9SharedPtrINS1_7AccountEEERK7QString@Base 0.6.2
 _ZN3KTp7Actions17startFileTransferERKN2Tp9SharedPtrINS1_7AccountEEERKNS2_INS1_7ContactEEERK4QUrl@Base 0.6.2
 _ZN3KTp7Actions17startFileTransferERKN2Tp9SharedPtrINS1_7AccountEEERKNS2_INS1_7ContactEEERK7QString@Base 0.6.2
 _ZN3KTp7Actions19startAudioVideoCallERKN2Tp9SharedPtrINS1_7AccountEEERKNS2_INS1_7ContactEEE@Base 0.6.2
 _ZN3KTp7Actions19startDesktopSharingERKN2Tp9SharedPtrINS1_7AccountEEERKNS2_INS1_7ContactEEE@Base 0.6.2
 _ZN3KTp7Actions9startChatERKN2Tp9SharedPtrINS1_7AccountEEERKNS2_INS1_7ContactEEEb@Base 0.6.2
 _ZN3KTp7Contact11invalidatedEv@Base 0.6.2
 _ZN3KTp7Contact11qt_metacallEN11QMetaObject4CallEiPPv@Base 0.6.2
 _ZN3KTp7Contact11qt_metacastEPKc@Base 0.6.2
 _ZN3KTp7Contact12avatarPixmapEv@Base 0.6.2
 _ZN3KTp7Contact12avatarToGrayER7QPixmap@Base 0.6.2
 _ZN3KTp7Contact15buildAvatarPathERK7QString@Base 0.6.2
 _ZN3KTp7Contact16staticMetaObjectE@Base 0.6.2
 _ZN3KTp7Contact21invalidateAvatarCacheEv@Base 0.6.2
 _ZN3KTp7ContactC1EPN2Tp14ContactManagerERKNS1_17ReferencedHandlesERKNS1_8FeaturesERK4QMapI7QString8QVariantE@Base 0.6.2
 _ZN3KTp7ContactC2EPN2Tp14ContactManagerERKNS1_17ReferencedHandlesERKNS1_8FeaturesERK4QMapI7QString8QVariantE@Base 0.6.2
 _ZN3KTp7ContactD0Ev@Base 0.6.2
 _ZN3KTp7ContactD1Ev@Base 0.6.2
 _ZN3KTp7ContactD2Ev@Base 0.6.2
 _ZN3KTp7Message11setPropertyEPKcRK8QVariant@Base 0.6.2
 _ZN3KTp7Message12appendScriptERK7QString@Base 0.6.2
 _ZN3KTp7Message17appendMessagePartERK7QString@Base 0.6.2
 _ZN3KTp7Message18setMainMessagePartERK7QString@Base 0.6.2
 _ZN3KTp7MessageC1ERK7QStringRKNS_14MessageContextE@Base 0.6.2
 _ZN3KTp7MessageC1ERKN2Tp15ReceivedMessageERKNS_14MessageContextE@Base 0.6.2
 _ZN3KTp7MessageC1ERKN2Tp7MessageERKNS_14MessageContextE@Base 0.6.2
 _ZN3KTp7MessageC1ERKN5QGlib10RefPointerIN3Tpl9TextEventEEERKNS_14MessageContextE@Base 0.6.2
 _ZN3KTp7MessageC1ERKS0_@Base 0.6.2
 _ZN3KTp7MessageC2ERK7QStringRKNS_14MessageContextE@Base 0.6.2
 _ZN3KTp7MessageC2ERKN2Tp15ReceivedMessageERKNS_14MessageContextE@Base 0.6.2
 _ZN3KTp7MessageC2ERKN2Tp7MessageERKNS_14MessageContextE@Base 0.6.2
 _ZN3KTp7MessageC2ERKN5QGlib10RefPointerIN3Tpl9TextEventEEERKNS_14MessageContextE@Base 0.6.2
 _ZN3KTp7MessageC2ERKS0_@Base 0.6.2
 _ZN3KTp7MessageD0Ev@Base 0.6.2
 _ZN3KTp7MessageD1Ev@Base 0.6.2
 _ZN3KTp7MessageD2Ev@Base 0.6.2
 _ZN3KTp7MessageaSERKS0_@Base 0.6.2
 _ZN3KTp8Presence12sortPriorityERKN2Tp22ConnectionPresenceTypeE@Base 0.6.2
 _ZN3KTp8PresenceC1ERKN2Tp8PresenceE@Base 0.6.2
 _ZN3KTp8PresenceC1Ev@Base 0.6.2
 _ZN3KTp8PresenceC2ERKN2Tp8PresenceE@Base 0.6.2
 _ZN3KTp8PresenceC2Ev@Base 0.6.2
 _ZNK3KTp12LogsImporter10metaObjectEv@Base 0.6.2
 _ZNK3KTp12LogsImporter7Private10metaObjectEv@Base 0.6.2
 _ZNK3KTp12LogsImporter7Private14findKopeteLogsERK7QString@Base 0.6.2
 _ZNK3KTp12LogsImporter7Private15parseKopeteTimeERK11QDomElement@Base 0.6.2
 _ZNK3KTp12LogsImporter7Private19accountIdToProtocolERK7QString@Base 0.6.2
 _ZNK3KTp12LogsImporter7Private22accountIdToAccountNameERK7QString@Base 0.6.2
 _ZNK3KTp13PendingWallet10metaObjectEv@Base 0.6.2
 _ZNK3KTp13PendingWallet15walletInterfaceEv@Base 0.6.2
 _ZNK3KTp14ContactFactory9constructEPN2Tp14ContactManagerERKNS1_17ReferencedHandlesERKNS1_8FeaturesERK4QMapI7QString8QVariantE@Base 0.6.2
 _ZNK3KTp14GlobalPresence10metaObjectEv@Base 0.6.2
 _ZNK3KTp14GlobalPresence14onlineAccountsEv@Base 0.6.2
 _ZNK3KTp14GlobalPresence15currentPresenceEv@Base 0.6.2
 _ZNK3KTp14GlobalPresence16connectionStatusEv@Base 0.6.2
 _ZNK3KTp14GlobalPresence17requestedPresenceEv@Base 0.6.2
 _ZNK3KTp14GlobalPresence18hasEnabledAccountsEv@Base 0.6.2
 _ZNK3KTp14GlobalPresence18isChangingPresenceEv@Base 0.6.2
 _ZNK3KTp14MessageContext7accountEv@Base 0.6.2
 _ZNK3KTp14MessageContext7channelEv@Base 0.6.2
 _ZNK3KTp15OutgoingMessage4textEv@Base 0.6.2
 _ZNK3KTp15OutgoingMessage4typeEv@Base 0.6.2
 _ZNK3KTp15WalletInterface6walletEv@Base 0.6.2
 _ZNK3KTp16MessageProcessor10metaObjectEv@Base 0.6.2
 _ZNK3KTp17CircularCountdown10metaObjectEv@Base 0.6.2
 _ZNK3KTp17CircularCountdown8durationEv@Base 0.6.2
 _ZNK3KTp17CircularCountdown8sizeHintEv@Base 0.6.2
 _ZNK3KTp17ContactInfoDialog10metaObjectEv@Base 0.6.2
 _ZNK3KTp17PersistentContact10metaObjectEv@Base 0.6.2
 _ZNK3KTp17PersistentContact7accountEv@Base 0.6.2
 _ZNK3KTp17PersistentContact7contactEv@Base 0.6.2
 _ZNK3KTp17PersistentContact9accountIdEv@Base 0.6.2
 _ZNK3KTp17PersistentContact9contactIdEv@Base 0.6.2
 _ZNK3KTp20GlobalContactManager10metaObjectEv@Base 0.6.2
 _ZNK3KTp20GlobalContactManager16allKnownContactsEv@Base 0.6.2
 _ZNK3KTp20GlobalContactManager17accountForContactERKN2Tp9SharedPtrINS1_7ContactEEE@Base 0.6.2
 _ZNK3KTp20GlobalContactManager19accountForAccountIdERK7QString@Base 0.6.2
 _ZNK3KTp20GlobalContactManager20accountForConnectionERKN2Tp9SharedPtrINS1_10ConnectionEEE@Base 0.6.2
 _ZNK3KTp21AbstractMessageFilter10metaObjectEv@Base 0.6.2
 _ZNK3KTp26MessageFilterConfigManager10allPluginsEv@Base 0.6.2
 _ZNK3KTp26MessageFilterConfigManager11configGroupEv@Base 0.6.2
 _ZNK3KTp26MessageFilterConfigManager12sharedConfigEv@Base 0.6.2
 _ZNK3KTp26MessageFilterConfigManager14enabledPluginsEv@Base 0.6.2
 _ZNK3KTp26MessageFilterConfigManager7Private6offersEv@Base 0.6.2
 _ZNK3KTp26ServiceAvailabilityChecker10metaObjectEv@Base 0.6.2
 _ZNK3KTp26ServiceAvailabilityChecker11isAvailableEv@Base 0.6.2
 _ZNK3KTp27TelepathyHandlerApplication10metaObjectEv@Base 0.6.2
 _ZNK3KTp7Contact10metaObjectEv@Base 0.6.2
 _ZNK3KTp7Contact11clientTypesEv@Base 0.6.2
 _ZNK3KTp7Contact19audioCallCapabilityEv@Base 0.6.2
 _ZNK3KTp7Contact19videoCallCapabilityEv@Base 0.6.2
 _ZNK3KTp7Contact22fileTransferCapabilityEv@Base 0.6.2
 _ZNK3KTp7Contact8keyCacheEv@Base 0.6.2
 _ZNK3KTp7Contact8presenceEv@Base 0.6.2
 _ZNK3KTp7Message11senderAliasEv@Base 0.6.2
 _ZNK3KTp7Message15finalizedScriptEv@Base 0.6.2
 _ZNK3KTp7Message15mainMessagePartEv@Base 0.6.2
 _ZNK3KTp7Message16finalizedMessageEv@Base 0.6.2
 _ZNK3KTp7Message4timeEv@Base 0.6.2
 _ZNK3KTp7Message4typeEv@Base 0.6.2
 _ZNK3KTp7Message5tokenEv@Base 0.6.2
 _ZNK3KTp7Message8propertyEPKc@Base 0.6.2
 _ZNK3KTp7Message8senderIdEv@Base 0.6.2
 _ZNK3KTp7Message9directionEv@Base 0.6.2
 _ZNK3KTp7Message9isHistoryEv@Base 0.6.2
 _ZNK3KTp7Message9partsSizeEv@Base 0.6.2
 _ZNK3KTp8Presence13displayStringEv@Base 0.6.2
 _ZNK3KTp8Presence4iconE11QStringListb@Base 0.6.2
 _ZNK3KTp8Presence4iconEb@Base 0.6.2
 _ZNK3KTp8Presence8iconNameEb@Base 0.6.2
 _ZNK3KTp8PresenceltERKS0_@Base 0.6.2
 _ZTIN3KTp10TextParserE@Base 0.6.2
 _ZTIN3KTp12LogsImporter7PrivateE@Base 0.6.2
 _ZTIN3KTp12LogsImporterE@Base 0.6.2
 _ZTIN3KTp13PendingWalletE@Base 0.6.2
 _ZTIN3KTp14ContactFactoryE@Base 0.6.2
 _ZTIN3KTp14GlobalPresenceE@Base 0.6.2
 _ZTIN3KTp14MessageContextE@Base 0.6.2
 _ZTIN3KTp15OutgoingMessageE@Base 0.6.2
 _ZTIN3KTp15WalletInterfaceE@Base 0.6.2
 _ZTIN3KTp16MessageProcessorE@Base 0.6.2
 _ZTIN3KTp17CircularCountdownE@Base 0.6.2
 _ZTIN3KTp17ContactInfoDialogE@Base 0.6.2
 _ZTIN3KTp17PersistentContactE@Base 0.6.2
 _ZTIN3KTp20GlobalContactManagerE@Base 0.6.2
 _ZTIN3KTp21AbstractMessageFilterE@Base 0.6.2
 _ZTIN3KTp26ServiceAvailabilityCheckerE@Base 0.6.2
 _ZTIN3KTp27TelepathyHandlerApplicationE@Base 0.6.2
 _ZTIN3KTp7ContactE@Base 0.6.2
 _ZTIN3KTp7MessageE@Base 0.6.2
 _ZTSN3KTp10TextParserE@Base 0.6.2
 _ZTSN3KTp12LogsImporter7PrivateE@Base 0.6.2
 _ZTSN3KTp12LogsImporterE@Base 0.6.2
 _ZTSN3KTp13PendingWalletE@Base 0.6.2
 _ZTSN3KTp14ContactFactoryE@Base 0.6.2
 _ZTSN3KTp14GlobalPresenceE@Base 0.6.2
 _ZTSN3KTp14MessageContextE@Base 0.6.2
 _ZTSN3KTp15OutgoingMessageE@Base 0.6.2
 _ZTSN3KTp15WalletInterfaceE@Base 0.6.2
 _ZTSN3KTp16MessageProcessorE@Base 0.6.2
 _ZTSN3KTp17CircularCountdownE@Base 0.6.2
 _ZTSN3KTp17ContactInfoDialogE@Base 0.6.2
 _ZTSN3KTp17PersistentContactE@Base 0.6.2
 _ZTSN3KTp20GlobalContactManagerE@Base 0.6.2
 _ZTSN3KTp21AbstractMessageFilterE@Base 0.6.2
 _ZTSN3KTp26ServiceAvailabilityCheckerE@Base 0.6.2
 _ZTSN3KTp27TelepathyHandlerApplicationE@Base 0.6.2
 _ZTSN3KTp7ContactE@Base 0.6.2
 _ZTSN3KTp7MessageE@Base 0.6.2
 _ZTVN3KTp10TextParserE@Base 0.6.2
 _ZTVN3KTp12LogsImporter7PrivateE@Base 0.6.2
 _ZTVN3KTp12LogsImporterE@Base 0.6.2
 _ZTVN3KTp13PendingWalletE@Base 0.6.2
 _ZTVN3KTp14ContactFactoryE@Base 0.6.2
 _ZTVN3KTp14GlobalPresenceE@Base 0.6.2
 _ZTVN3KTp14MessageContextE@Base 0.6.2
 _ZTVN3KTp15OutgoingMessageE@Base 0.6.2
 _ZTVN3KTp15WalletInterfaceE@Base 0.6.2
 _ZTVN3KTp16MessageProcessorE@Base 0.6.2
 _ZTVN3KTp17CircularCountdownE@Base 0.6.2
 _ZTVN3KTp17ContactInfoDialogE@Base 0.6.2
 _ZTVN3KTp17PersistentContactE@Base 0.6.2
 _ZTVN3KTp20GlobalContactManagerE@Base 0.6.2
 _ZTVN3KTp21AbstractMessageFilterE@Base 0.6.2
 _ZTVN3KTp26ServiceAvailabilityCheckerE@Base 0.6.2
 _ZTVN3KTp27TelepathyHandlerApplicationE@Base 0.6.2
 _ZTVN3KTp7ContactE@Base 0.6.2
 _ZTVN3KTp7MessageE@Base 0.6.2
 _ZThn16_N3KTp17CircularCountdownD0Ev@Base 0.6.2
 _ZThn16_N3KTp17CircularCountdownD1Ev@Base 0.6.2
 _ZThn16_N3KTp17ContactInfoDialogD0Ev@Base 0.6.2
 _ZThn16_N3KTp17ContactInfoDialogD1Ev@Base 0.6.2
 _ZThn16_N3KTp17PersistentContactD0Ev@Base 0.6.2
 _ZThn16_N3KTp17PersistentContactD1Ev@Base 0.6.2
 _ZThn16_N3KTp7ContactD0Ev@Base 0.6.2
 _ZThn16_N3KTp7ContactD1Ev@Base 0.6.2
libktpmodelsprivate.so.5 libktpcommoninternalsprivate5 #MINVER#
 _ZN3KTp10RoomsModel11qt_metacallEN11QMetaObject4CallEiPPv@Base 0.6.2
 _ZN3KTp10RoomsModel11qt_metacastEPKc@Base 0.6.2
 _ZN3KTp10RoomsModel16staticMetaObjectE@Base 0.6.2
 _ZN3KTp10RoomsModel17clearRoomInfoListEv@Base 0.6.2
 _ZN3KTp10RoomsModel8addRoomsE5QListIN2Tp8RoomInfoEE@Base 0.6.2
 _ZN3KTp10RoomsModelC1EP7QObject@Base 0.6.2
 _ZN3KTp10RoomsModelC2EP7QObject@Base 0.6.2
 _ZN3KTp10RoomsModelD0Ev@Base 0.6.2
 _ZN3KTp10RoomsModelD1Ev@Base 0.6.2
 _ZN3KTp10RoomsModelD2Ev@Base 0.6.2
 _ZN3KTp13ContactsModel11qt_metacallEN11QMetaObject4CallEiPPv@Base 0.6.2
 _ZN3KTp13ContactsModel11qt_metacastEPKc@Base 0.6.2
 _ZN3KTp13ContactsModel12setGroupModeENS0_9GroupModeE@Base 0.6.2
 _ZN3KTp13ContactsModel14setSourceModelEP18QAbstractItemModel@Base 0.6.2
 _ZN3KTp13ContactsModel16groupModeChangedEv@Base 0.6.2
 _ZN3KTp13ContactsModel16staticMetaObjectE@Base 0.6.2
 _ZN3KTp13ContactsModel17setAccountManagerERKN2Tp9SharedPtrINS1_14AccountManagerEEE@Base 0.6.2
 _ZN3KTp13ContactsModel22setTrackUnreadMessagesEb@Base 0.6.2
 _ZN3KTp13ContactsModel22updateGroupProxyModelsEv@Base 0.6.2
 _ZN3KTp13ContactsModel26trackUnreadMessagesChangedEv@Base 0.6.2
 _ZN3KTp13ContactsModelC1EP7QObject@Base 0.6.2
 _ZN3KTp13ContactsModelC2EP7QObject@Base 0.6.2
 _ZN3KTp13ContactsModelD0Ev@Base 0.6.2
 _ZN3KTp13ContactsModelD1Ev@Base 0.6.2
 _ZN3KTp13ContactsModelD2Ev@Base 0.6.2
 _ZN3KTp17AccountsListModel11qt_metacallEN11QMetaObject4CallEiPPv@Base 0.6.2
 _ZN3KTp17AccountsListModel11qt_metacastEPKc@Base 0.6.2
 _ZN3KTp17AccountsListModel13setAccountSetERKN2Tp9SharedPtrINS1_10AccountSetEEE@Base 0.6.2
 _ZN3KTp17AccountsListModel14onAccountAddedERKN2Tp9SharedPtrINS1_7AccountEEE@Base 0.6.2
 _ZN3KTp17AccountsListModel16onAccountRemovedERKN2Tp9SharedPtrINS1_7AccountEEE@Base 0.6.2
 _ZN3KTp17AccountsListModel16onAccountUpdatedEv@Base 0.6.2
 _ZN3KTp17AccountsListModel16staticMetaObjectE@Base 0.6.2
 _ZN3KTp17AccountsListModel7setDataERK11QModelIndexRK8QVarianti@Base 0.6.2
 _ZN3KTp17AccountsListModelC1EP7QObject@Base 0.6.2
 _ZN3KTp17AccountsListModelC2EP7QObject@Base 0.6.2
 _ZN3KTp17AccountsListModelD0Ev@Base 0.6.2
 _ZN3KTp17AccountsListModelD1Ev@Base 0.6.2
 _ZN3KTp17AccountsListModelD2Ev@Base 0.6.2
 _ZN3KTp17ContactsListModel11qt_metacallEN11QMetaObject4CallEiPPv@Base 0.6.2
 _ZN3KTp17ContactsListModel11qt_metacastEPKc@Base 0.6.2
 _ZN3KTp17ContactsListModel16staticMetaObjectE@Base 0.6.2
 _ZN3KTp17ContactsListModel17onContactsChangedERK4QSetIN2Tp9SharedPtrINS2_7ContactEEEES8_@Base 0.6.2
 _ZN3KTp17ContactsListModel17setAccountManagerERKN2Tp9SharedPtrINS1_14AccountManagerEEE@Base 0.6.2
 _ZN3KTp17ContactsListModel19onConnectionDroppedEv@Base 0.6.2
 _ZN3KTp17ContactsListModel9onChangedEv@Base 0.6.2
 _ZN3KTp17ContactsListModelC1EP7QObject@Base 0.6.2
 _ZN3KTp17ContactsListModelC2EP7QObject@Base 0.6.2
 _ZN3KTp17ContactsListModelD0Ev@Base 0.6.2
 _ZN3KTp17ContactsListModelD1Ev@Base 0.6.2
 _ZN3KTp17ContactsListModelD2Ev@Base 0.6.2
 _ZN3KTp18FavoriteRoomsModel10removeRoomERK4QMapI7QString8QVariantE@Base 0.6.2
 _ZN3KTp18FavoriteRoomsModel11qt_metacallEN11QMetaObject4CallEiPPv@Base 0.6.2
 _ZN3KTp18FavoriteRoomsModel11qt_metacastEPKc@Base 0.6.2
 _ZN3KTp18FavoriteRoomsModel16staticMetaObjectE@Base 0.6.2
 _ZN3KTp18FavoriteRoomsModel7addRoomERK4QMapI7QString8QVariantE@Base 0.6.2
 _ZN3KTp18FavoriteRoomsModel8addRoomsE5QListI4QMapI7QString8QVariantEE@Base 0.6.2
 _ZN3KTp18FavoriteRoomsModelC1EP7QObject@Base 0.6.2
 _ZN3KTp18FavoriteRoomsModelC2EP7QObject@Base 0.6.2
 _ZN3KTp18FavoriteRoomsModelD0Ev@Base 0.6.2
 _ZN3KTp18FavoriteRoomsModelD1Ev@Base 0.6.2
 _ZN3KTp18FavoriteRoomsModelD2Ev@Base 0.6.2
 _ZN3KTp19ContactsFilterModel11qt_metacallEN11QMetaObject4CallEiPPv@Base 0.6.2
 _ZN3KTp19ContactsFilterModel11qt_metacastEPKc@Base 0.6.2
 _ZN3KTp19ContactsFilterModel14setSourceModelEP18QAbstractItemModel@Base 0.6.2
 _ZN3KTp19ContactsFilterModel16invalidateFilterEv@Base 0.6.2
 _ZN3KTp19ContactsFilterModel16setAccountFilterERKN2Tp9SharedPtrINS1_7AccountEEE@Base 0.6.2
 _ZN3KTp19ContactsFilterModel16staticMetaObjectE@Base 0.6.2
 _ZN3KTp19ContactsFilterModel17setIdFilterStringERK7QString@Base 0.6.2
 _ZN3KTp19ContactsFilterModel17setSortRoleStringERK7QString@Base 0.6.2
 _ZN3KTp19ContactsFilterModel18clearAccountFilterEv@Base 0.6.2
 _ZN3KTp19ContactsFilterModel19clearIdFilterStringEv@Base 0.6.2
 _ZN3KTp19ContactsFilterModel20accountFilterChangedERKN2Tp9SharedPtrINS1_7AccountEEE@Base 0.6.2
 _ZN3KTp19ContactsFilterModel20setAliasFilterStringERK7QString@Base 0.6.2
 _ZN3KTp19ContactsFilterModel21idFilterStringChangedERK7QString@Base 0.6.2
 _ZN3KTp19ContactsFilterModel21setGlobalFilterStringERK7QString@Base 0.6.2
 _ZN3KTp19ContactsFilterModel21setGroupsFilterStringERK7QString@Base 0.6.2
 _ZN3KTp19ContactsFilterModel21setIdFilterMatchFlagsE6QFlagsIN2Qt9MatchFlagEE@Base 0.6.2
 _ZN3KTp19ContactsFilterModel21setTubesFilterStringsERK11QStringList@Base 0.6.2
 _ZN3KTp19ContactsFilterModel22clearAliasFilterStringEv@Base 0.6.2
 _ZN3KTp19ContactsFilterModel23clearGlobalFilterStringEv@Base 0.6.2
 _ZN3KTp19ContactsFilterModel23clearGroupsFilterStringEv@Base 0.6.2
 _ZN3KTp19ContactsFilterModel23clearTubesFilterStringsEv@Base 0.6.2
 _ZN3KTp19ContactsFilterModel23resetIdFilterMatchFlagsEv@Base 0.6.2
 _ZN3KTp19ContactsFilterModel23setNicknameFilterStringERK7QString@Base 0.6.2
 _ZN3KTp19ContactsFilterModel24aliasFilterStringChangedERK7QString@Base 0.6.2
 _ZN3KTp19ContactsFilterModel24setAliasFilterMatchFlagsE6QFlagsIN2Qt9MatchFlagEE@Base 0.6.2
 _ZN3KTp19ContactsFilterModel24setCapabilityFilterFlagsE6QFlagsINS0_20CapabilityFilterFlagEE@Base 0.6.2
 _ZN3KTp19ContactsFilterModel25clearNicknameFilterStringEv@Base 0.6.2
 _ZN3KTp19ContactsFilterModel25globalFilterStringChangedERK7QString@Base 0.6.2
 _ZN3KTp19ContactsFilterModel25groupsFilterStringChangedERK7QString@Base 0.6.2
 _ZN3KTp19ContactsFilterModel25idFilterMatchFlagsChangedE6QFlagsIN2Qt9MatchFlagEE@Base 0.6.2
 _ZN3KTp19ContactsFilterModel25setGlobalFilterMatchFlagsE6QFlagsIN2Qt9MatchFlagEE@Base 0.6.2
 _ZN3KTp19ContactsFilterModel25setGroupsFilterMatchFlagsE6QFlagsIN2Qt9MatchFlagEE@Base 0.6.2
 _ZN3KTp19ContactsFilterModel25tubesFilterStringsChangedERK11QStringList@Base 0.6.2
 _ZN3KTp19ContactsFilterModel26clearCapabilityFilterFlagsEv@Base 0.6.2
 _ZN3KTp19ContactsFilterModel26resetAliasFilterMatchFlagsEv@Base 0.6.2
 _ZN3KTp19ContactsFilterModel26setDisplayNameFilterStringERK7QString@Base 0.6.2
 _ZN3KTp19ContactsFilterModel26setPresenceTypeFilterFlagsE6QFlagsINS0_22PresenceTypeFilterFlagEE@Base 0.6.2
 _ZN3KTp19ContactsFilterModel27nicknameFilterStringChangedERK7QString@Base 0.6.2
 _ZN3KTp19ContactsFilterModel27resetGlobalFilterMatchFlagsEv@Base 0.6.2
 _ZN3KTp19ContactsFilterModel27resetGroupsFilterMatchFlagsEv@Base 0.6.2
 _ZN3KTp19ContactsFilterModel27setNicknameFilterMatchFlagsE6QFlagsIN2Qt9MatchFlagEE@Base 0.6.2
 _ZN3KTp19ContactsFilterModel28aliasFilterMatchFlagsChangedE6QFlagsIN2Qt9MatchFlagEE@Base 0.6.2
 _ZN3KTp19ContactsFilterModel28capabilityFilterFlagsChangedE6QFlagsINS0_20CapabilityFilterFlagEE@Base 0.6.2
 _ZN3KTp19ContactsFilterModel28clearDisplayNameFilterStringEv@Base 0.6.2
 _ZN3KTp19ContactsFilterModel28clearPresenceTypeFilterFlagsEv@Base 0.6.2
 _ZN3KTp19ContactsFilterModel29globalFilterMatchFlagsChangedE6QFlagsIN2Qt9MatchFlagEE@Base 0.6.2
 _ZN3KTp19ContactsFilterModel29groupsFilterMatchFlagsChangedE6QFlagsIN2Qt9MatchFlagEE@Base 0.6.2
 _ZN3KTp19ContactsFilterModel29resetNicknameFilterMatchFlagsEv@Base 0.6.2
 _ZN3KTp19ContactsFilterModel30displayNameFilterStringChangedERK7QString@Base 0.6.2
 _ZN3KTp19ContactsFilterModel30presenceTypeFilterFlagsChangedE6QFlagsINS0_22PresenceTypeFilterFlagEE@Base 0.6.2
 _ZN3KTp19ContactsFilterModel30setDisplayNameFilterMatchFlagsE6QFlagsIN2Qt9MatchFlagEE@Base 0.6.2
 _ZN3KTp19ContactsFilterModel31nicknameFilterMatchFlagsChangedE6QFlagsIN2Qt9MatchFlagEE@Base 0.6.2
 _ZN3KTp19ContactsFilterModel31setSubscriptionStateFilterFlagsE6QFlagsINS0_27SubscriptionStateFilterFlagEE@Base 0.6.2
 _ZN3KTp19ContactsFilterModel32resetDisplayNameFilterMatchFlagsEv@Base 0.6.2
 _ZN3KTp19ContactsFilterModel33clearSubscriptionStateFilterFlagsEv@Base 0.6.2
 _ZN3KTp19ContactsFilterModel34displayNameFilterMatchFlagsChangedE6QFlagsIN2Qt9MatchFlagEE@Base 0.6.2
 _ZN3KTp19ContactsFilterModel35subscriptionStateFilterFlagsChangedE6QFlagsINS0_27SubscriptionStateFilterFlagEE@Base 0.6.2
 _ZN3KTp19ContactsFilterModel7Private13countContactsERK11QModelIndex@Base 0.6.2
 _ZN3KTp19ContactsFilterModel7Private18filterAcceptsGroupERK11QModelIndex@Base 0.6.2
 _ZN3KTp19ContactsFilterModel7Private23sourceModelIndexChangedERK11QModelIndex@Base 0.6.2
 _ZN3KTp19ContactsFilterModel7Private29sourceModelParentIndexChangedERK11QModelIndex@Base 0.6.2
 _ZN3KTp19ContactsFilterModelC1EP7QObject@Base 0.6.2
 _ZN3KTp19ContactsFilterModelC2EP7QObject@Base 0.6.2
 _ZN3KTp19ContactsFilterModelD0Ev@Base 0.6.2
 _ZN3KTp19ContactsFilterModelD1Ev@Base 0.6.2
 _ZN3KTp19ContactsFilterModelD2Ev@Base 0.6.2
 _ZN3KTp20GroupsTreeProxyModel11qt_metacallEN11QMetaObject4CallEiPPv@Base 0.6.2
 _ZN3KTp20GroupsTreeProxyModel11qt_metacastEPKc@Base 0.6.2
 _ZN3KTp20GroupsTreeProxyModel16staticMetaObjectE@Base 0.6.2
 _ZN3KTp20GroupsTreeProxyModelC1EP18QAbstractItemModel@Base 0.6.2
 _ZN3KTp20GroupsTreeProxyModelC2EP18QAbstractItemModel@Base 0.6.2
 _ZN3KTp20GroupsTreeProxyModelD0Ev@Base 0.6.2
 _ZN3KTp20GroupsTreeProxyModelD1Ev@Base 0.6.2
 _ZN3KTp20GroupsTreeProxyModelD2Ev@Base 0.6.2
 _ZN3KTp22AccountsTreeProxyModel11qt_metacallEN11QMetaObject4CallEiPPv@Base 0.6.2
 _ZN3KTp22AccountsTreeProxyModel11qt_metacastEPKc@Base 0.6.2
 _ZN3KTp22AccountsTreeProxyModel14onAccountAddedERKN2Tp9SharedPtrINS1_7AccountEEE@Base 0.6.2
 _ZN3KTp22AccountsTreeProxyModel16onAccountChangedEv@Base 0.6.2
 _ZN3KTp22AccountsTreeProxyModel16onAccountRemovedERKN2Tp9SharedPtrINS1_7AccountEEE@Base 0.6.2
 _ZN3KTp22AccountsTreeProxyModel16staticMetaObjectE@Base 0.6.2
 _ZN3KTp22AccountsTreeProxyModelC1EP18QAbstractItemModelRKN2Tp9SharedPtrINS3_14AccountManagerEEE@Base 0.6.2
 _ZN3KTp22AccountsTreeProxyModelC2EP18QAbstractItemModelRKN2Tp9SharedPtrINS3_14AccountManagerEEE@Base 0.6.2
 _ZN3KTp22AccountsTreeProxyModelD0Ev@Base 0.6.2
 _ZN3KTp22AccountsTreeProxyModelD1Ev@Base 0.6.2
 _ZN3KTp22AccountsTreeProxyModelD2Ev@Base 0.6.2
 _ZN3KTp26AbstractGroupingProxyModel10forceGroupERK7QString@Base 0.6.2
 _ZN3KTp26AbstractGroupingProxyModel11qt_metacallEN11QMetaObject4CallEiPPv@Base 0.6.2
 _ZN3KTp26AbstractGroupingProxyModel11qt_metacastEPKc@Base 0.6.2
 _ZN3KTp26AbstractGroupingProxyModel12addProxyNodeERK11QModelIndexP13QStandardItem@Base 0.6.2
 _ZN3KTp26AbstractGroupingProxyModel12groupChangedERK7QString@Base 0.6.2
 _ZN3KTp26AbstractGroupingProxyModel12itemForGroupERK7QString@Base 0.6.2
 _ZN3KTp26AbstractGroupingProxyModel12onModelResetEv@Base 0.6.2
 _ZN3KTp26AbstractGroupingProxyModel12unforceGroupERK7QString@Base 0.6.2
 _ZN3KTp26AbstractGroupingProxyModel13onDataChangedERK11QModelIndexS3_@Base 0.6.2
 _ZN3KTp26AbstractGroupingProxyModel13onRowsRemovedERK11QModelIndexii@Base 0.6.2
 _ZN3KTp26AbstractGroupingProxyModel14onRowsInsertedERK11QModelIndexii@Base 0.6.2
 _ZN3KTp26AbstractGroupingProxyModel16removeProxyNodesERK11QModelIndexRK5QListIP9ProxyNodeE@Base 0.6.2
 _ZN3KTp26AbstractGroupingProxyModel16staticMetaObjectE@Base 0.6.2
 _ZN3KTp26AbstractGroupingProxyModel6onLoadEv@Base 0.6.2
 _ZN3KTp26AbstractGroupingProxyModelC1EP18QAbstractItemModel@Base 0.6.2
 _ZN3KTp26AbstractGroupingProxyModelC2EP18QAbstractItemModel@Base 0.6.2
 _ZN3KTp26AbstractGroupingProxyModelD0Ev@Base 0.6.2
 _ZN3KTp26AbstractGroupingProxyModelD1Ev@Base 0.6.2
 _ZN3KTp26AbstractGroupingProxyModelD2Ev@Base 0.6.2
 _ZN3KTp28TextChannelWatcherProxyModel11qt_metacallEN11QMetaObject4CallEiPPv@Base 0.6.2
 _ZN3KTp28TextChannelWatcherProxyModel11qt_metacastEPKc@Base 0.6.2
 _ZN3KTp28TextChannelWatcherProxyModel15observeChannelsERKN2Tp26MethodInvocationContextPtrINS1_28MethodInvocationContextTypes3NilES4_S4_S4_S4_S4_S4_S4_EERKNS1_9SharedPtrINS1_7AccountEEERKNS8_INS1_10ConnectionEEERK5QListINS8_INS1_7ChannelEEEERKNS8_INS1_24ChannelDispatchOperationEEERKSH_INS8_INS1_14ChannelRequestEEEERKNS1_22AbstractClientObserver12ObserverInfoE@Base 0.6.2
 _ZN3KTp28TextChannelWatcherProxyModel16staticMetaObjectE@Base 0.6.2
 _ZN3KTp28TextChannelWatcherProxyModel20onChannelInvalidatedEv@Base 0.6.2
 _ZN3KTp28TextChannelWatcherProxyModel24onChannelMessagesChangedEv@Base 0.6.2
 _ZN3KTp28TextChannelWatcherProxyModelC1EP7QObject@Base 0.6.2
 _ZN3KTp28TextChannelWatcherProxyModelC2EP7QObject@Base 0.6.2
 _ZN3KTp28TextChannelWatcherProxyModelD0Ev@Base 0.6.2
 _ZN3KTp28TextChannelWatcherProxyModelD1Ev@Base 0.6.2
 _ZN3KTp28TextChannelWatcherProxyModelD2Ev@Base 0.6.2
 _ZNK3KTp10RoomsModel10headerDataEiN2Qt11OrientationEi@Base 0.6.2
 _ZNK3KTp10RoomsModel10metaObjectEv@Base 0.6.2
 _ZNK3KTp10RoomsModel11columnCountERK11QModelIndex@Base 0.6.2
 _ZNK3KTp10RoomsModel4dataERK11QModelIndexi@Base 0.6.2
 _ZNK3KTp10RoomsModel8rowCountERK11QModelIndex@Base 0.6.2
 _ZNK3KTp13ContactsModel10metaObjectEv@Base 0.6.2
 _ZNK3KTp13ContactsModel14accountManagerEv@Base 0.6.2
 _ZNK3KTp13ContactsModel19trackUnreadMessagesEv@Base 0.6.2
 _ZNK3KTp13ContactsModel9groupModeEv@Base 0.6.2
 _ZNK3KTp17AccountsListModel10metaObjectEv@Base 0.6.2
 _ZNK3KTp17AccountsListModel11columnCountERK11QModelIndex@Base 0.6.2
 _ZNK3KTp17AccountsListModel19connectionStateIconERKN2Tp9SharedPtrINS1_7AccountEEE@Base 0.6.2
 _ZNK3KTp17AccountsListModel21connectionStateStringERKN2Tp9SharedPtrINS1_7AccountEEE@Base 0.6.2
 _ZNK3KTp17AccountsListModel22connectionStatusReasonERKN2Tp9SharedPtrINS1_7AccountEEE@Base 0.6.2
 _ZNK3KTp17AccountsListModel4dataERK11QModelIndexi@Base 0.6.2
 _ZNK3KTp17AccountsListModel5indexEiiRK11QModelIndex@Base 0.6.2
 _ZNK3KTp17AccountsListModel8rowCountERK11QModelIndex@Base 0.6.2
 _ZNK3KTp17ContactsListModel10metaObjectEv@Base 0.6.2
 _ZNK3KTp17ContactsListModel4dataERK11QModelIndexi@Base 0.6.2
 _ZNK3KTp17ContactsListModel8rowCountERK11QModelIndex@Base 0.6.2
 _ZNK3KTp18FavoriteRoomsModel10metaObjectEv@Base 0.6.2
 _ZNK3KTp18FavoriteRoomsModel11columnCountERK11QModelIndex@Base 0.6.2
 _ZNK3KTp18FavoriteRoomsModel12containsRoomERK7QStringS3_@Base 0.6.2
 _ZNK3KTp18FavoriteRoomsModel15countForAccountERK7QString@Base 0.6.2
 _ZNK3KTp18FavoriteRoomsModel4dataERK11QModelIndexi@Base 0.6.2
 _ZNK3KTp18FavoriteRoomsModel8rowCountERK11QModelIndex@Base 0.6.2
 _ZNK3KTp19ContactsFilterModel10metaObjectEv@Base 0.6.2
 _ZNK3KTp19ContactsFilterModel13accountFilterEv@Base 0.6.2
 _ZNK3KTp19ContactsFilterModel14idFilterStringEv@Base 0.6.2
 _ZNK3KTp19ContactsFilterModel14sortRoleStringEv@Base 0.6.2
 _ZNK3KTp19ContactsFilterModel16filterAcceptsRowEiRK11QModelIndex@Base 0.6.2
 _ZNK3KTp19ContactsFilterModel17aliasFilterStringEv@Base 0.6.2
 _ZNK3KTp19ContactsFilterModel18globalFilterStringEv@Base 0.6.2
 _ZNK3KTp19ContactsFilterModel18groupsFilterStringEv@Base 0.6.2
 _ZNK3KTp19ContactsFilterModel18idFilterMatchFlagsEv@Base 0.6.2
 _ZNK3KTp19ContactsFilterModel18tubesFilterStringsEv@Base 0.6.2
 _ZNK3KTp19ContactsFilterModel20nicknameFilterStringEv@Base 0.6.2
 _ZNK3KTp19ContactsFilterModel21aliasFilterMatchFlagsEv@Base 0.6.2
 _ZNK3KTp19ContactsFilterModel21capabilityFilterFlagsEv@Base 0.6.2
 _ZNK3KTp19ContactsFilterModel22globalFilterMatchFlagsEv@Base 0.6.2
 _ZNK3KTp19ContactsFilterModel22groupsFilterMatchFlagsEv@Base 0.6.2
 _ZNK3KTp19ContactsFilterModel23displayNameFilterStringEv@Base 0.6.2
 _ZNK3KTp19ContactsFilterModel23presenceTypeFilterFlagsEv@Base 0.6.2
 _ZNK3KTp19ContactsFilterModel24nicknameFilterMatchFlagsEv@Base 0.6.2
 _ZNK3KTp19ContactsFilterModel27displayNameFilterMatchFlagsEv@Base 0.6.2
 _ZNK3KTp19ContactsFilterModel28subscriptionStateFilterFlagsEv@Base 0.6.2
 _ZNK3KTp19ContactsFilterModel4dataERK11QModelIndexi@Base 0.6.2
 _ZNK3KTp19ContactsFilterModel5matchERK11QModelIndexiRK8QVarianti6QFlagsIN2Qt9MatchFlagEE@Base 0.6.2
 _ZNK3KTp19ContactsFilterModel7Private20filterAcceptsAccountERK11QModelIndex@Base 0.6.2
 _ZNK3KTp19ContactsFilterModel7Private20filterAcceptsContactERK11QModelIndex@Base 0.6.2
 _ZNK3KTp19ContactsFilterModel8lessThanERK11QModelIndexS3_@Base 0.6.2
 _ZNK3KTp20GroupsTreeProxyModel10metaObjectEv@Base 0.6.2
 _ZNK3KTp20GroupsTreeProxyModel12dataForGroupERK7QStringi@Base 0.6.2
 _ZNK3KTp20GroupsTreeProxyModel14groupsForIndexERK11QModelIndex@Base 0.6.2
 _ZNK3KTp22AccountsTreeProxyModel10metaObjectEv@Base 0.6.2
 _ZNK3KTp22AccountsTreeProxyModel12dataForGroupERK7QStringi@Base 0.6.2
 _ZNK3KTp22AccountsTreeProxyModel14groupsForIndexERK11QModelIndex@Base 0.6.2
 _ZNK3KTp26AbstractGroupingProxyModel10metaObjectEv@Base 0.6.2
 _ZNK3KTp28TextChannelWatcherProxyModel10metaObjectEv@Base 0.6.2
 _ZNK3KTp28TextChannelWatcherProxyModel4dataERK11QModelIndexi@Base 0.6.2
 (optional=g++internal)_ZTCN3KTp28TextChannelWatcherProxyModelE16_N2Tp22AbstractClientObserverE@Base 0.6.2
 _ZTIN3KTp10RoomsModelE@Base 0.6.2
 _ZTIN3KTp13ContactsModelE@Base 0.6.2
 _ZTIN3KTp17AccountsListModelE@Base 0.6.2
 _ZTIN3KTp17ContactsListModelE@Base 0.6.2
 _ZTIN3KTp18FavoriteRoomsModelE@Base 0.6.2
 _ZTIN3KTp19ContactsFilterModelE@Base 0.6.2
 _ZTIN3KTp20GroupsTreeProxyModelE@Base 0.6.2
 _ZTIN3KTp22AccountsTreeProxyModelE@Base 0.6.2
 _ZTIN3KTp26AbstractGroupingProxyModelE@Base 0.6.2
 _ZTIN3KTp28TextChannelWatcherProxyModelE@Base 0.6.2
 _ZTSN3KTp10RoomsModelE@Base 0.6.2
 _ZTSN3KTp13ContactsModelE@Base 0.6.2
 _ZTSN3KTp17AccountsListModelE@Base 0.6.2
 _ZTSN3KTp17ContactsListModelE@Base 0.6.2
 _ZTSN3KTp18FavoriteRoomsModelE@Base 0.6.2
 _ZTSN3KTp19ContactsFilterModelE@Base 0.6.2
 _ZTSN3KTp20GroupsTreeProxyModelE@Base 0.6.2
 _ZTSN3KTp22AccountsTreeProxyModelE@Base 0.6.2
 _ZTSN3KTp26AbstractGroupingProxyModelE@Base 0.6.2
 _ZTSN3KTp28TextChannelWatcherProxyModelE@Base 0.6.2
 _ZTTN3KTp28TextChannelWatcherProxyModelE@Base 0.6.2
 _ZTVN3KTp10RoomsModelE@Base 0.6.2
 _ZTVN3KTp13ContactsModelE@Base 0.6.2
 _ZTVN3KTp17AccountsListModelE@Base 0.6.2
 _ZTVN3KTp17ContactsListModelE@Base 0.6.2
 _ZTVN3KTp18FavoriteRoomsModelE@Base 0.6.2
 _ZTVN3KTp19ContactsFilterModelE@Base 0.6.2
 _ZTVN3KTp20GroupsTreeProxyModelE@Base 0.6.2
 _ZTVN3KTp22AccountsTreeProxyModelE@Base 0.6.2
 _ZTVN3KTp26AbstractGroupingProxyModelE@Base 0.6.2
 _ZTVN3KTp28TextChannelWatcherProxyModelE@Base 0.6.2
 _ZThn16_N3KTp28TextChannelWatcherProxyModel15observeChannelsERKN2Tp26MethodInvocationContextPtrINS1_28MethodInvocationContextTypes3NilES4_S4_S4_S4_S4_S4_S4_EERKNS1_9SharedPtrINS1_7AccountEEERKNS8_INS1_10ConnectionEEERK5QListINS8_INS1_7ChannelEEEERKNS8_INS1_24ChannelDispatchOperationEEERKSH_INS8_INS1_14ChannelRequestEEEERKNS1_22AbstractClientObserver12ObserverInfoE@Base 0.6.2
 _ZThn16_N3KTp28TextChannelWatcherProxyModelD0Ev@Base 0.6.2
 _ZThn16_N3KTp28TextChannelWatcherProxyModelD1Ev@Base 0.6.2
 _ZTv0_n24_N3KTp28TextChannelWatcherProxyModelD0Ev@Base 0.6.2
 _ZTv0_n24_N3KTp28TextChannelWatcherProxyModelD1Ev@Base 0.6.2
libktpwidgetsprivate.so.5 libktpcommoninternalsprivate5 #MINVER#
 _ZN3KTp16AccountsComboBox11qt_metacallEN11QMetaObject4CallEiPPv@Base 0.6.2
 _ZN3KTp16AccountsComboBox11qt_metacastEPKc@Base 0.6.2
 _ZN3KTp16AccountsComboBox13setAccountSetERKN2Tp9SharedPtrINS1_10AccountSetEEE@Base 0.6.2
 _ZN3KTp16AccountsComboBox14currentAccountEv@Base 0.6.2
 _ZN3KTp16AccountsComboBox16staticMetaObjectE@Base 0.6.2
 _ZN3KTp16AccountsComboBox17setCurrentAccountERK7QString@Base 0.6.2
 _ZN3KTp16AccountsComboBox17setCurrentAccountERKN2Tp9SharedPtrINS1_7AccountEEE@Base 0.6.2
 _ZN3KTp16AccountsComboBoxC1EP7QWidget@Base 0.6.2
 _ZN3KTp16AccountsComboBoxC2EP7QWidget@Base 0.6.2
 _ZN3KTp16AccountsComboBoxD0Ev@Base 0.6.2
 _ZN3KTp16AccountsComboBoxD1Ev@Base 0.6.2
 _ZN3KTp16AccountsComboBoxD2Ev@Base 0.6.2
 _ZN3KTp16AddContactDialog10closeEventEP11QCloseEvent@Base 0.6.2
 _ZN3KTp16AddContactDialog11qt_metacallEN11QMetaObject4CallEiPPv@Base 0.6.2
 _ZN3KTp16AddContactDialog11qt_metacastEPKc@Base 0.6.2
 _ZN3KTp16AddContactDialog16staticMetaObjectE@Base 0.6.2
 _ZN3KTp16AddContactDialog6acceptEv@Base 0.6.2
 _ZN3KTp16AddContactDialogC1ERKN2Tp9SharedPtrINS1_14AccountManagerEEEP7QWidget@Base 0.6.2
 _ZN3KTp16AddContactDialogC2ERKN2Tp9SharedPtrINS1_14AccountManagerEEEP7QWidget@Base 0.6.2
 _ZN3KTp16AddContactDialogD0Ev@Base 0.6.2
 _ZN3KTp16AddContactDialogD1Ev@Base 0.6.2
 _ZN3KTp16AddContactDialogD2Ev@Base 0.6.2
 _ZN3KTp17ContactGridDialog11qt_metacallEN11QMetaObject4CallEiPPv@Base 0.6.2
 _ZN3KTp17ContactGridDialog11qt_metacastEPKc@Base 0.6.2
 _ZN3KTp17ContactGridDialog16staticMetaObjectE@Base 0.6.2
 _ZN3KTp17ContactGridDialog7Private12_k_onChangedEv@Base 0.6.2
 _ZN3KTp17ContactGridDialog7Private14_k_onOkClickedEv@Base 0.6.2
 _ZN3KTp17ContactGridDialog7Private24_k_onAccountManagerReadyEv@Base 0.6.2
 _ZN3KTp17ContactGridDialog7accountEv@Base 0.6.2
 _ZN3KTp17ContactGridDialog7contactEv@Base 0.6.2
 _ZN3KTp17ContactGridDialogC1EP7QWidget@Base 0.6.2
 _ZN3KTp17ContactGridDialogC2EP7QWidget@Base 0.6.2
 _ZN3KTp17ContactGridDialogD0Ev@Base 0.6.2
 _ZN3KTp17ContactGridDialogD1Ev@Base 0.6.2
 _ZN3KTp17ContactGridDialogD2Ev@Base 0.6.2
 _ZN3KTp17ContactGridWidget11qt_metacallEN11QMetaObject4CallEiPPv@Base 0.6.2
 _ZN3KTp17ContactGridWidget11qt_metacastEPKc@Base 0.6.2
 _ZN3KTp17ContactGridWidget11setIconSizeERK5QSize@Base 0.6.2
 _ZN3KTp17ContactGridWidget15iconSizeChangedERK5QSize@Base 0.6.2
 _ZN3KTp17ContactGridWidget16selectionChangedEN2Tp9SharedPtrINS1_7AccountEEENS2_INS1_7ContactEEE@Base 0.6.2
 _ZN3KTp17ContactGridWidget16staticMetaObjectE@Base 0.6.2
 _ZN3KTp17ContactGridWidget20setDisplayNameFilterERK7QString@Base 0.6.2
 _ZN3KTp17ContactGridWidget22clearDisplayNameFilterEv@Base 0.6.2
 _ZN3KTp17ContactGridWidget24displayNameFilterChangedERK7QString@Base 0.6.2
 _ZN3KTp17ContactGridWidget7Private21_k_onSelectionChangedE14QItemSelectionS2_@Base 0.6.2
 _ZN3KTp17ContactGridWidgetC1EPNS_17ContactsListModelEP7QWidget@Base 0.6.2
 _ZN3KTp17ContactGridWidgetC2EPNS_17ContactsListModelEP7QWidget@Base 0.6.2
 _ZN3KTp17ContactGridWidgetD0Ev@Base 0.6.2
 _ZN3KTp17ContactGridWidgetD1Ev@Base 0.6.2
 _ZN3KTp17ContactGridWidgetD2Ev@Base 0.6.2
 _ZN3KTp18JoinChatRoomDialog10onGotRoomsE5QListIN2Tp8RoomInfoEE@Base 0.6.2
 _ZN3KTp18JoinChatRoomDialog11addFavoriteEv@Base 0.6.2
 _ZN3KTp18JoinChatRoomDialog11getRoomListEv@Base 0.6.2
 _ZN3KTp18JoinChatRoomDialog11qt_metacallEN11QMetaObject4CallEiPPv@Base 0.6.2
 _ZN3KTp18JoinChatRoomDialog11qt_metacastEPKc@Base 0.6.2
 _ZN3KTp18JoinChatRoomDialog11stopListingEv@Base 0.6.2
 _ZN3KTp18JoinChatRoomDialog13addRecentRoomEv@Base 0.6.2
 _ZN3KTp18JoinChatRoomDialog13onRoomClickedERK11QModelIndex@Base 0.6.2
 _ZN3KTp18JoinChatRoomDialog13onTextChangedE7QString@Base 0.6.2
 _ZN3KTp18JoinChatRoomDialog14removeFavoriteEv@Base 0.6.2
 _ZN3KTp18JoinChatRoomDialog16clearRecentRoomsEv@Base 0.6.2
 _ZN3KTp18JoinChatRoomDialog16removeRecentRoomEv@Base 0.6.2
 _ZN3KTp18JoinChatRoomDialog16staticMetaObjectE@Base 0.6.2
 _ZN3KTp18JoinChatRoomDialog17loadFavoriteRoomsEv@Base 0.6.2
 _ZN3KTp18JoinChatRoomDialog19onRecentRoomClickedEv@Base 0.6.2
 _ZN3KTp18JoinChatRoomDialog21onFavoriteRoomClickedERK11QModelIndex@Base 0.6.2
 _ZN3KTp18JoinChatRoomDialog22onRoomListChannelReadyEPN2Tp16PendingOperationE@Base 0.6.2
 _ZN3KTp18JoinChatRoomDialog22sendNotificationToUserERK7QString@Base 0.6.2
 _ZN3KTp18JoinChatRoomDialog23onRoomListChannelClosedEPN2Tp16PendingOperationE@Base 0.6.2
 _ZN3KTp18JoinChatRoomDialog25onAccountSelectionChangedEi@Base 0.6.2
 _ZN3KTp18JoinChatRoomDialog33onRoomListChannelReadyForHandlingEPN2Tp16PendingOperationE@Base 0.6.2
 _ZN3KTp18JoinChatRoomDialog9onListingEb@Base 0.6.2
 _ZN3KTp18JoinChatRoomDialogC1EN2Tp9SharedPtrINS1_14AccountManagerEEEP7QWidget@Base 0.6.2
 _ZN3KTp18JoinChatRoomDialogC2EN2Tp9SharedPtrINS1_14AccountManagerEEEP7QWidget@Base 0.6.2
 _ZN3KTp18JoinChatRoomDialogD0Ev@Base 0.6.2
 _ZN3KTp18JoinChatRoomDialogD1Ev@Base 0.6.2
 _ZN3KTp18JoinChatRoomDialogD2Ev@Base 0.6.2
 _ZN3KTp24NotificationConfigDialog10saveConfigEv@Base 0.6.2
 _ZN3KTp24NotificationConfigDialog11onOkClickedEv@Base 0.6.2
 _ZN3KTp24NotificationConfigDialog11qt_metacallEN11QMetaObject4CallEiPPv@Base 0.6.2
 _ZN3KTp24NotificationConfigDialog11qt_metacastEPKc@Base 0.6.2
 _ZN3KTp24NotificationConfigDialog16staticMetaObjectE@Base 0.6.2
 _ZN3KTp24NotificationConfigDialog18updateNotifyWidgetEi@Base 0.6.2
 _ZN3KTp24NotificationConfigDialog8defaultsEv@Base 0.6.2
 _ZN3KTp24NotificationConfigDialogC1ERKN2Tp9SharedPtrINS1_7ContactEEEP7QWidget@Base 0.6.2
 _ZN3KTp24NotificationConfigDialogC2ERKN2Tp9SharedPtrINS1_7ContactEEEP7QWidget@Base 0.6.2
 _ZN3KTp24NotificationConfigDialogD0Ev@Base 0.6.2
 _ZN3KTp24NotificationConfigDialogD1Ev@Base 0.6.2
 _ZN3KTp24NotificationConfigDialogD2Ev@Base 0.6.2
 _ZNK3KTp16AccountsComboBox10metaObjectEv@Base 0.6.2
 _ZNK3KTp16AddContactDialog10metaObjectEv@Base 0.6.2
 _ZNK3KTp17ContactGridDialog10metaObjectEv@Base 0.6.2
 _ZNK3KTp17ContactGridDialog6filterEv@Base 0.6.2
 _ZNK3KTp17ContactGridWidget10metaObjectEv@Base 0.6.2
 _ZNK3KTp17ContactGridWidget12hasSelectionEv@Base 0.6.2
 _ZNK3KTp17ContactGridWidget15selectedAccountEv@Base 0.6.2
 _ZNK3KTp17ContactGridWidget15selectedContactEv@Base 0.6.2
 _ZNK3KTp17ContactGridWidget17displayNameFilterEv@Base 0.6.2
 _ZNK3KTp17ContactGridWidget21contactFilterLineEditEv@Base 0.6.2
 _ZNK3KTp17ContactGridWidget6filterEv@Base 0.6.2
 _ZNK3KTp17ContactGridWidget8iconSizeEv@Base 0.6.2
 _ZNK3KTp18JoinChatRoomDialog10metaObjectEv@Base 0.6.2
 _ZNK3KTp18JoinChatRoomDialog15selectedAccountEv@Base 0.6.2
 _ZNK3KTp18JoinChatRoomDialog16selectedChatRoomEv@Base 0.6.2
 _ZNK3KTp24NotificationConfigDialog10metaObjectEv@Base 0.6.2
 _ZTIN3KTp16AccountsComboBoxE@Base 0.6.2
 _ZTIN3KTp16AddContactDialogE@Base 0.6.2
 _ZTIN3KTp17ContactGridDialogE@Base 0.6.2
 _ZTIN3KTp17ContactGridWidgetE@Base 0.6.2
 _ZTIN3KTp18JoinChatRoomDialogE@Base 0.6.2
 _ZTIN3KTp24NotificationConfigDialogE@Base 0.6.2
 _ZTSN3KTp16AccountsComboBoxE@Base 0.6.2
 _ZTSN3KTp16AddContactDialogE@Base 0.6.2
 _ZTSN3KTp17ContactGridDialogE@Base 0.6.2
 _ZTSN3KTp17ContactGridWidgetE@Base 0.6.2
 _ZTSN3KTp18JoinChatRoomDialogE@Base 0.6.2
 _ZTSN3KTp24NotificationConfigDialogE@Base 0.6.2
 _ZTVN3KTp16AccountsComboBoxE@Base 0.6.2
 _ZTVN3KTp16AddContactDialogE@Base 0.6.2
 _ZTVN3KTp17ContactGridDialogE@Base 0.6.2
 _ZTVN3KTp17ContactGridWidgetE@Base 0.6.2
 _ZTVN3KTp18JoinChatRoomDialogE@Base 0.6.2
 _ZTVN3KTp24NotificationConfigDialogE@Base 0.6.2
 _ZThn16_N3KTp16AccountsComboBoxD0Ev@Base 0.6.2
 _ZThn16_N3KTp16AccountsComboBoxD1Ev@Base 0.6.2
 _ZThn16_N3KTp16AddContactDialogD0Ev@Base 0.6.2
 _ZThn16_N3KTp16AddContactDialogD1Ev@Base 0.6.2
 _ZThn16_N3KTp17ContactGridDialogD0Ev@Base 0.6.2
 _ZThn16_N3KTp17ContactGridDialogD1Ev@Base 0.6.2
 _ZThn16_N3KTp17ContactGridWidgetD0Ev@Base 0.6.2
 _ZThn16_N3KTp17ContactGridWidgetD1Ev@Base 0.6.2
 _ZThn16_N3KTp18JoinChatRoomDialogD0Ev@Base 0.6.2
 _ZThn16_N3KTp18JoinChatRoomDialogD1Ev@Base 0.6.2
 _ZThn16_N3KTp24NotificationConfigDialogD0Ev@Base 0.6.2
 _ZThn16_N3KTp24NotificationConfigDialogD1Ev@Base 0.6.2
