# SymbolsHelper-Confirmed: 0.9.0 amd64
libktpcommoninternalsprivate.so.8 libktpcommoninternalsprivate8 #MINVER#
 _ZN3KTp10TextParser10s_instanceE@Base 0.8.0
 _ZN3KTp10TextParser14extractUrlDataERK7QStringb@Base 0.8.0
 _ZN3KTp10TextParser8instanceEv@Base 0.8.0
 _ZN3KTp10TextParserC1EP7QObject@Base 0.8.0
 _ZN3KTp10TextParserC2EP7QObject@Base 0.8.0
 _ZN3KTp10TextParserD0Ev@Base 0.8.0
 _ZN3KTp10TextParserD1Ev@Base 0.8.0
 _ZN3KTp10TextParserD2Ev@Base 0.8.0
 (optional=inline)_ZN3KTp11TextUrlDataD1Ev@Base 0.8.0
 (optional=inline)_ZN3KTp11TextUrlDataD2Ev@Base 0.8.0
 _ZN3KTp11WalletUtils18setAccountPasswordERKN2Tp9SharedPtrINS1_7AccountEEERK7QString@Base 0.8.0
 _ZN3KTp11WalletUtils21removeAccountPasswordERKN2Tp9SharedPtrINS1_7AccountEEE@Base 0.8.0
 _ZN3KTp12LogsImporter11qt_metacallEN11QMetaObject4CallEiPPv@Base 0.8.0
 _ZN3KTp12LogsImporter11qt_metacastEPKc@Base 0.8.0
 _ZN3KTp12LogsImporter12logsImportedEv@Base 0.8.0
 _ZN3KTp12LogsImporter13hasKopeteLogsERKN2Tp9SharedPtrINS1_7AccountEEE@Base 0.8.0
 _ZN3KTp12LogsImporter14startLogImportERKN2Tp9SharedPtrINS1_7AccountEEE@Base 0.8.0
 _ZN3KTp12LogsImporter16staticMetaObjectE@Base 0.8.0
 _ZN3KTp12LogsImporter5errorERK7QString@Base 0.8.0
 _ZN3KTp12LogsImporter7Private11qt_metacallEN11QMetaObject4CallEiPPv@Base 0.8.0
 _ZN3KTp12LogsImporter7Private11qt_metacastEPKc@Base 0.8.0
 _ZN3KTp12LogsImporter7Private12setAccountIdERK7QString@Base 0.8.0
 _ZN3KTp12LogsImporter7Private15initKTpDocumentEv@Base 0.8.0
 _ZN3KTp12LogsImporter7Private15saveKTpDocumentEv@Base 0.8.0
 _ZN3KTp12LogsImporter7Private16convertKopeteLogERK7QString@Base 0.8.0
 _ZN3KTp12LogsImporter7Private16staticMetaObjectE@Base 0.8.0
 _ZN3KTp12LogsImporter7Private20convertKopeteMessageERK11QDomElement@Base 0.8.0
 _ZN3KTp12LogsImporter7Private3runEv@Base 0.8.0
 _ZN3KTp12LogsImporter7Private5errorERK7QString@Base 0.8.0
 _ZN3KTp12LogsImporter7PrivateC1EPS0_@Base 0.8.0
 _ZN3KTp12LogsImporter7PrivateC2EPS0_@Base 0.8.0
 _ZN3KTp12LogsImporter7PrivateD0Ev@Base 0.8.0
 _ZN3KTp12LogsImporter7PrivateD1Ev@Base 0.8.0
 _ZN3KTp12LogsImporter7PrivateD2Ev@Base 0.8.0
 _ZN3KTp12LogsImporterC1EP7QObject@Base 0.8.0
 _ZN3KTp12LogsImporterC2EP7QObject@Base 0.8.0
 _ZN3KTp12LogsImporterD0Ev@Base 0.8.0
 _ZN3KTp12LogsImporterD1Ev@Base 0.8.0
 _ZN3KTp12LogsImporterD2Ev@Base 0.8.0
 _ZN3KTp13PendingWallet11qt_metacallEN11QMetaObject4CallEiPPv@Base 0.8.0
 _ZN3KTp13PendingWallet11qt_metacastEPKc@Base 0.8.0
 _ZN3KTp13PendingWallet16staticMetaObjectE@Base 0.8.0
 _ZN3KTp13PendingWalletC1EPNS_15WalletInterfaceE@Base 0.8.0
 _ZN3KTp13PendingWalletC2EPNS_15WalletInterfaceE@Base 0.8.0
 _ZN3KTp13PendingWalletD0Ev@Base 0.8.0
 _ZN3KTp13PendingWalletD1Ev@Base 0.8.0
 _ZN3KTp13PendingWalletD2Ev@Base 0.8.0
 _ZN3KTp14ContactFactory6createERKN2Tp8FeaturesE@Base 0.8.0
 _ZN3KTp14ContactFactoryC1ERKN2Tp8FeaturesE@Base 0.8.0
 _ZN3KTp14ContactFactoryC2ERKN2Tp8FeaturesE@Base 0.8.0
 _ZN3KTp14ContactFactoryD0Ev@Base 0.8.0
 _ZN3KTp14ContactFactoryD1Ev@Base 0.8.0
 _ZN3KTp14ContactFactoryD2Ev@Base 0.8.0
 _ZN3KTp14GlobalPresence11qt_metacallEN11QMetaObject4CallEiPPv@Base 0.8.0
 _ZN3KTp14GlobalPresence11qt_metacastEPKc@Base 0.8.0
 _ZN3KTp14GlobalPresence11setPresenceENS0_22ConnectionPresenceTypeE7QString@Base 0.9.0
 _ZN3KTp14GlobalPresence11setPresenceERKNS_8PresenceE@Base 0.9.0
 _ZN3KTp14GlobalPresence14onAccountAddedERKN2Tp9SharedPtrINS1_7AccountEEE@Base 0.8.0
 _ZN3KTp14GlobalPresence16changingPresenceEb@Base 0.8.0
 _ZN3KTp14GlobalPresence16staticMetaObjectE@Base 0.8.0
 _ZN3KTp14GlobalPresence17addAccountManagerERKN2Tp9SharedPtrINS1_14AccountManagerEEE@Base 0.9.0
 _ZN3KTp14GlobalPresence17setAccountManagerERKN2Tp9SharedPtrINS1_14AccountManagerEEE@Base 0.8.0
 _ZN3KTp14GlobalPresence18onChangingPresenceEv@Base 0.8.0
 _ZN3KTp14GlobalPresence19accountManagerReadyEv@Base 0.9.0
 _ZN3KTp14GlobalPresence19saveCurrentPresenceEv@Base 0.8.0
 _ZN3KTp14GlobalPresence20restoreSavedPresenceEv@Base 0.8.0
 _ZN3KTp14GlobalPresence21onAccountManagerReadyEPN2Tp16PendingOperationE@Base 0.9.0
 _ZN3KTp14GlobalPresence22currentPresenceChangedERKNS_8PresenceE@Base 0.8.0
 _ZN3KTp14GlobalPresence23connectionStatusChangedEN2Tp16ConnectionStatusE@Base 0.8.0
 _ZN3KTp14GlobalPresence24onCurrentPresenceChangedEv@Base 0.8.0
 _ZN3KTp14GlobalPresence24requestedPresenceChangedERKNS_8PresenceE@Base 0.8.0
 _ZN3KTp14GlobalPresence25onConnectionStatusChangedEv@Base 0.8.0
 _ZN3KTp14GlobalPresence26onRequestedPresenceChangedEv@Base 0.8.0
 _ZN3KTp14GlobalPresenceC1EP7QObject@Base 0.8.0
 _ZN3KTp14GlobalPresenceC2EP7QObject@Base 0.8.0
 _ZN3KTp14GlobalPresenceD0Ev@Base 0.8.0
 _ZN3KTp14GlobalPresenceD1Ev@Base 0.8.0
 _ZN3KTp14GlobalPresenceD2Ev@Base 0.8.0
 _ZN3KTp14MessageContextC1ERKN2Tp9SharedPtrINS1_7AccountEEERKNS2_INS1_11TextChannelEEE@Base 0.8.0
 _ZN3KTp14MessageContextC2ERKN2Tp9SharedPtrINS1_7AccountEEERKNS2_INS1_11TextChannelEEE@Base 0.8.0
 _ZN3KTp14MessageContextD0Ev@Base 0.8.0
 _ZN3KTp14MessageContextD1Ev@Base 0.8.0
 _ZN3KTp14MessageContextD2Ev@Base 0.8.0
 _ZN3KTp14accountFactoryEv@Base 0.8.0
 _ZN3KTp14accountManagerEv@Base 0.8.0
 _ZN3KTp14channelFactoryEv@Base 0.8.0
 _ZN3KTp14contactFactoryEv@Base 0.8.0
 _ZN3KTp14contactManagerEv@Base 0.8.0
 _ZN3KTp14kpeopleEnabledEv@Base 0.8.0
 _ZN3KTp15ErrorDictionary24displayShortErrorMessageERK7QString@Base 0.8.0
 _ZN3KTp15ErrorDictionary26displayVerboseErrorMessageERK7QString@Base 0.8.0
 _ZN3KTp15OutgoingMessage7setTextERK7QString@Base 0.8.0
 _ZN3KTp15OutgoingMessage7setTypeEN2Tp22ChannelTextMessageTypeE@Base 0.8.0
 _ZN3KTp15OutgoingMessageC1ERK7QString@Base 0.8.0
 _ZN3KTp15OutgoingMessageC1ERKS0_@Base 0.8.0
 _ZN3KTp15OutgoingMessageC2ERK7QString@Base 0.8.0
 _ZN3KTp15OutgoingMessageC2ERKS0_@Base 0.8.0
 _ZN3KTp15OutgoingMessageD0Ev@Base 0.8.0
 _ZN3KTp15OutgoingMessageD1Ev@Base 0.8.0
 _ZN3KTp15OutgoingMessageD2Ev@Base 0.8.0
 _ZN3KTp15OutgoingMessageaSERKS0_@Base 0.8.0
 _ZN3KTp15WalletInterface10openWalletEv@Base 0.8.0
 _ZN3KTp15WalletInterface11hasPasswordERKN2Tp9SharedPtrINS1_7AccountEEE@Base 0.8.0
 _ZN3KTp15WalletInterface11removeEntryERKN2Tp9SharedPtrINS1_7AccountEEERK7QString@Base 0.8.0
 _ZN3KTp15WalletInterface11setPasswordERKN2Tp9SharedPtrINS1_7AccountEEERK7QString@Base 0.8.0
 _ZN3KTp15WalletInterface13removeAccountERKN2Tp9SharedPtrINS1_7AccountEEE@Base 0.8.0
 _ZN3KTp15WalletInterface14removePasswordERKN2Tp9SharedPtrINS1_7AccountEEE@Base 0.8.0
 _ZN3KTp15WalletInterface15lastLoginFailedERKN2Tp9SharedPtrINS1_7AccountEEE@Base 0.8.0
 _ZN3KTp15WalletInterface16removeAllEntriesERKN2Tp9SharedPtrINS1_7AccountEEE@Base 0.8.0
 _ZN3KTp15WalletInterface18setLastLoginFailedERKN2Tp9SharedPtrINS1_7AccountEEEb@Base 0.8.0
 _ZN3KTp15WalletInterface5entryERKN2Tp9SharedPtrINS1_7AccountEEERK7QString@Base 0.8.0
 _ZN3KTp15WalletInterface6isOpenEv@Base 0.8.0
 _ZN3KTp15WalletInterface8hasEntryERKN2Tp9SharedPtrINS1_7AccountEEERK7QString@Base 0.8.0
 _ZN3KTp15WalletInterface8passwordERKN2Tp9SharedPtrINS1_7AccountEEE@Base 0.8.0
 _ZN3KTp15WalletInterface8setEntryERKN2Tp9SharedPtrINS1_7AccountEEERK7QStringS9_@Base 0.8.0
 _ZN3KTp15WalletInterfaceC1Ev@Base 0.8.0
 _ZN3KTp15WalletInterfaceC2Ev@Base 0.8.0
 _ZN3KTp15WalletInterfaceD0Ev@Base 0.8.0
 _ZN3KTp15WalletInterfaceD1Ev@Base 0.8.0
 _ZN3KTp15WalletInterfaceD2Ev@Base 0.8.0
 _ZN3KTp16MessageProcessor11qt_metacallEN11QMetaObject4CallEiPPv@Base 0.8.0
 _ZN3KTp16MessageProcessor11qt_metacastEPKc@Base 0.8.0
 _ZN3KTp16MessageProcessor16staticMetaObjectE@Base 0.8.0
 _ZN3KTp16MessageProcessor22processIncomingMessageENS_7MessageERKNS_14MessageContextE@Base 0.8.0
 _ZN3KTp16MessageProcessor22processIncomingMessageERKN2Tp15ReceivedMessageERKNS1_9SharedPtrINS1_7AccountEEERKNS5_INS1_11TextChannelEEE@Base 0.8.0
 _ZN3KTp16MessageProcessor22processIncomingMessageERKN2Tp7MessageERKNS1_9SharedPtrINS1_7AccountEEERKNS5_INS1_11TextChannelEEE@Base 0.8.0
 _ZN3KTp16MessageProcessor22processOutgoingMessageERK7QStringRKN2Tp9SharedPtrINS4_7AccountEEERKNS5_INS4_11TextChannelEEE@Base 0.8.0
 _ZN3KTp16MessageProcessor6headerEv@Base 0.8.0
 _ZN3KTp16MessageProcessor7Private10loadFilterERK11KPluginInfo@Base 0.8.0
 _ZN3KTp16MessageProcessor7Private11loadFiltersEv@Base 0.8.0
 _ZN3KTp16MessageProcessor7Private12unloadFilterERK11KPluginInfo@Base 0.8.0
 _ZN3KTp16MessageProcessor8instanceEv@Base 0.8.0
 _ZN3KTp16MessageProcessorC1Ev@Base 0.8.0
 _ZN3KTp16MessageProcessorC2Ev@Base 0.8.0
 _ZN3KTp16MessageProcessorD0Ev@Base 0.8.0
 _ZN3KTp16MessageProcessorD1Ev@Base 0.8.0
 _ZN3KTp16MessageProcessorD2Ev@Base 0.8.0
 _ZN3KTp17CircularCountdown10paintEventEP11QPaintEvent@Base 0.8.0
 _ZN3KTp17CircularCountdown11qt_metacallEN11QMetaObject4CallEiPPv@Base 0.8.0
 _ZN3KTp17CircularCountdown11qt_metacastEPKc@Base 0.8.0
 _ZN3KTp17CircularCountdown11setDurationEi@Base 0.8.0
 _ZN3KTp17CircularCountdown16staticMetaObjectE@Base 0.8.0
 _ZN3KTp17CircularCountdown4stopEv@Base 0.8.0
 _ZN3KTp17CircularCountdown5pauseEv@Base 0.8.0
 _ZN3KTp17CircularCountdown5startEv@Base 0.8.0
 _ZN3KTp17CircularCountdown6resumeEv@Base 0.8.0
 _ZN3KTp17CircularCountdown7timeoutEv@Base 0.8.0
 _ZN3KTp17CircularCountdownC1EiP7QWidget@Base 0.8.0
 _ZN3KTp17CircularCountdownC2EiP7QWidget@Base 0.8.0
 _ZN3KTp17CircularCountdownD0Ev@Base 0.8.0
 _ZN3KTp17CircularCountdownD1Ev@Base 0.8.0
 _ZN3KTp17CircularCountdownD2Ev@Base 0.8.0
 _ZN3KTp17ContactInfoDialog11qt_metacallEN11QMetaObject4CallEiPPv@Base 0.8.0
 _ZN3KTp17ContactInfoDialog11qt_metacastEPKc@Base 0.8.0
 _ZN3KTp17ContactInfoDialog16staticMetaObjectE@Base 0.8.0
 _ZN3KTp17ContactInfoDialog17slotButtonClickedEi@Base 0.8.0
 _ZN3KTp17ContactInfoDialog7Private10addInfoRowENS_12InfoRowIndexERK7QString@Base 0.8.0
 _ZN3KTp17ContactInfoDialog7Private11addStateRowERK7QStringN2Tp7Contact13PresenceStateE@Base 0.8.0
 _ZN3KTp17ContactInfoDialog7Private13loadStateRowsEv@Base 0.9.0
 _ZN3KTp17ContactInfoDialog7Private17onContactUpgradedEPN2Tp16PendingOperationE@Base 0.8.0
 _ZN3KTp17ContactInfoDialog7Private17onInfoDataChangedEv@Base 0.8.0
 _ZN3KTp17ContactInfoDialog7Private20onFeatureRosterReadyEPN2Tp16PendingOperationE@Base 0.9.0
 _ZN3KTp17ContactInfoDialog7Private21onContactInfoReceivedEPN2Tp16PendingOperationE@Base 0.8.0
 _ZN3KTp17ContactInfoDialog7Private26onClearAvatarButtonClickedEv@Base 0.8.0
 _ZN3KTp17ContactInfoDialog7Private27onChangeAvatarButtonClickedEv@Base 0.8.0
 _ZN3KTp17ContactInfoDialogC1ERKN2Tp9SharedPtrINS1_7AccountEEERKNS2_INS1_7ContactEEEP7QWidget@Base 0.8.0
 _ZN3KTp17ContactInfoDialogC2ERKN2Tp9SharedPtrINS1_7AccountEEERKNS2_INS1_7ContactEEEP7QWidget@Base 0.8.0
 _ZN3KTp17ContactInfoDialogD0Ev@Base 0.8.0
 _ZN3KTp17ContactInfoDialogD1Ev@Base 0.8.0
 _ZN3KTp17ContactInfoDialogD2Ev@Base 0.8.0
 _ZN3KTp17PersistentContact11qt_metacallEN11QMetaObject4CallEiPPv@Base 0.8.0
 _ZN3KTp17PersistentContact11qt_metacastEPKc@Base 0.8.0
 _ZN3KTp17PersistentContact14contactChangedEN2Tp9SharedPtrINS_7ContactEEE@Base 0.8.0
 _ZN3KTp17PersistentContact14onAccountReadyEPN2Tp16PendingOperationE@Base 0.8.0
 _ZN3KTp17PersistentContact16onContactInvalidEv@Base 0.8.0
 _ZN3KTp17PersistentContact16staticMetaObjectE@Base 0.8.0
 _ZN3KTp17PersistentContact17setAccountManagerERKN2Tp9SharedPtrINS1_14AccountManagerEEE@Base 0.8.0
 _ZN3KTp17PersistentContact25onPendingContactsFinishedEPN2Tp16PendingOperationE@Base 0.8.0
 _ZN3KTp17PersistentContact26onAccountConnectionChangedERKN2Tp9SharedPtrINS1_10ConnectionEEE@Base 0.8.0
 _ZN3KTp17PersistentContact6createERK7QStringS3_@Base 0.8.0
 _ZN3KTp17PersistentContactC1ERK7QStringS3_@Base 0.8.0
 _ZN3KTp17PersistentContactC2ERK7QStringS3_@Base 0.8.0
 _ZN3KTp17PersistentContactD0Ev@Base 0.8.0
 _ZN3KTp17PersistentContactD1Ev@Base 0.8.0
 _ZN3KTp17PersistentContactD2Ev@Base 0.8.0
 _ZN3KTp17connectionFactoryEv@Base 0.8.0
 _ZN3KTp20GlobalContactManager11qt_metacallEN11QMetaObject4CallEiPPv@Base 0.8.0
 _ZN3KTp20GlobalContactManager11qt_metacastEPKc@Base 0.8.0
 _ZN3KTp20GlobalContactManager12onNewAccountERKN2Tp9SharedPtrINS1_7AccountEEE@Base 0.8.0
 _ZN3KTp20GlobalContactManager16staticMetaObjectE@Base 0.8.0
 _ZN3KTp20GlobalContactManager17onConnectionReadyEPN2Tp16PendingOperationE@Base 0.8.0
 _ZN3KTp20GlobalContactManager19contactForContactIdERK7QStringS3_@Base 0.8.0
 _ZN3KTp20GlobalContactManager19onConnectionChangedERKN2Tp9SharedPtrINS1_10ConnectionEEE@Base 0.8.0
 _ZN3KTp20GlobalContactManager21onAccountManagerReadyEPN2Tp16PendingOperationE@Base 0.8.0
 _ZN3KTp20GlobalContactManager23allKnownContactsChangedERK4QSetIN2Tp9SharedPtrINS2_7ContactEEEES8_@Base 0.8.0
 _ZN3KTp20GlobalContactManager28onContactManagerStateChangedEN2Tp16ContactListStateE@Base 0.8.0
 _ZN3KTp20GlobalContactManager28onContactManagerStateChangedERKN2Tp9SharedPtrINS1_14ContactManagerEEENS1_16ContactListStateE@Base 0.8.0
 _ZN3KTp20GlobalContactManager28presencePublicationRequestedE4QSetIN2Tp9SharedPtrINS2_7ContactEEEE@Base 0.8.0
 _ZN3KTp20GlobalContactManagerC1ERKN2Tp9SharedPtrINS1_14AccountManagerEEEP7QObject@Base 0.8.0
 _ZN3KTp20GlobalContactManagerC2ERKN2Tp9SharedPtrINS1_14AccountManagerEEEP7QObject@Base 0.8.0
 _ZN3KTp20GlobalContactManagerD0Ev@Base 0.8.0
 _ZN3KTp20GlobalContactManagerD1Ev@Base 0.8.0
 _ZN3KTp20GlobalContactManagerD2Ev@Base 0.8.0
 _ZN3KTp21AbstractMessageFilter11qt_metacallEN11QMetaObject4CallEiPPv@Base 0.8.0
 _ZN3KTp21AbstractMessageFilter11qt_metacastEPKc@Base 0.8.0
 _ZN3KTp21AbstractMessageFilter13filterMessageERNS_7MessageERKNS_14MessageContextE@Base 0.8.0
 _ZN3KTp21AbstractMessageFilter15requiredScriptsEv@Base 0.8.0
 _ZN3KTp21AbstractMessageFilter16staticMetaObjectE@Base 0.8.0
 _ZN3KTp21AbstractMessageFilter19requiredStylesheetsEv@Base 0.8.0
 _ZN3KTp21AbstractMessageFilter21filterOutgoingMessageERNS_15OutgoingMessageERKNS_14MessageContextE@Base 0.8.0
 _ZN3KTp21AbstractMessageFilterC1EP7QObject@Base 0.8.0
 _ZN3KTp21AbstractMessageFilterC2EP7QObject@Base 0.8.0
 _ZN3KTp21AbstractMessageFilterD0Ev@Base 0.8.0
 _ZN3KTp21AbstractMessageFilterD1Ev@Base 0.8.0
 _ZN3KTp21AbstractMessageFilterD2Ev@Base 0.8.0
 _ZN3KTp26MessageFilterConfigManager12reloadConfigEv@Base 0.8.0
 _ZN3KTp26MessageFilterConfigManager4selfEv@Base 0.8.0
 _ZN3KTp26MessageFilterConfigManager7Private13generateCacheEv@Base 0.8.0
 _ZN3KTp26MessageFilterConfigManagerC1Ev@Base 0.8.0
 _ZN3KTp26MessageFilterConfigManagerC2Ev@Base 0.8.0
 _ZN3KTp26MessageFilterConfigManagerD1Ev@Base 0.8.0
 _ZN3KTp26MessageFilterConfigManagerD2Ev@Base 0.8.0
 _ZN3KTp26ServiceAvailabilityChecker10introspectEv@Base 0.8.0
 _ZN3KTp26ServiceAvailabilityChecker11qt_metacallEN11QMetaObject4CallEiPPv@Base 0.8.0
 _ZN3KTp26ServiceAvailabilityChecker11qt_metacastEPKc@Base 0.8.0
 _ZN3KTp26ServiceAvailabilityChecker14onCallFinishedEP23QDBusPendingCallWatcher@Base 0.8.0
 _ZN3KTp26ServiceAvailabilityChecker16staticMetaObjectE@Base 0.8.0
 _ZN3KTp26ServiceAvailabilityChecker21onServiceOwnerChangedERK7QStringS3_S3_@Base 0.8.0
 _ZN3KTp26ServiceAvailabilityCheckerC1ERK7QStringP7QObject@Base 0.8.0
 _ZN3KTp26ServiceAvailabilityCheckerC2ERK7QStringP7QObject@Base 0.8.0
 _ZN3KTp26ServiceAvailabilityCheckerD0Ev@Base 0.8.0
 _ZN3KTp26ServiceAvailabilityCheckerD1Ev@Base 0.8.0
 _ZN3KTp26ServiceAvailabilityCheckerD2Ev@Base 0.8.0
 _ZN3KTp27TelepathyHandlerApplication11jobFinishedEv@Base 0.8.0
 _ZN3KTp27TelepathyHandlerApplication11qt_metacallEN11QMetaObject4CallEiPPv@Base 0.8.0
 _ZN3KTp27TelepathyHandlerApplication11qt_metacastEPKc@Base 0.8.0
 _ZN3KTp27TelepathyHandlerApplication16staticMetaObjectE@Base 0.8.0
 _ZN3KTp27TelepathyHandlerApplication6newJobEv@Base 0.8.0
 _ZN3KTp27TelepathyHandlerApplication7Private12_k_onTimeoutEv@Base 0.8.0
 _ZN3KTp27TelepathyHandlerApplication7Private19_k_onInitialTimeoutEv@Base 0.8.0
 _ZN3KTp27TelepathyHandlerApplication7Private4initEii@Base 0.8.0
 _ZN3KTp27TelepathyHandlerApplication7Private7s_debugE@Base 0.8.0
 _ZN3KTp27TelepathyHandlerApplication7Private8initHackEv@Base 0.8.0
 _ZN3KTp27TelepathyHandlerApplication7Private9s_persistE@Base 0.8.0
 _ZN3KTp27TelepathyHandlerApplication7PrivateC1EPS0_@Base 0.8.0
 _ZN3KTp27TelepathyHandlerApplication7PrivateC2EPS0_@Base 0.8.0
 _ZN3KTp27TelepathyHandlerApplication7PrivateD1Ev@Base 0.8.0
 _ZN3KTp27TelepathyHandlerApplication7PrivateD2Ev@Base 0.8.0
 _ZN3KTp27TelepathyHandlerApplicationC1EP9_XDisplaymmii@Base 0.8.0
 _ZN3KTp27TelepathyHandlerApplicationC1Ebii@Base 0.8.0
 _ZN3KTp27TelepathyHandlerApplicationC2EP9_XDisplaymmii@Base 0.8.0
 _ZN3KTp27TelepathyHandlerApplicationC2Ebii@Base 0.8.0
 _ZN3KTp27TelepathyHandlerApplicationD0Ev@Base 0.8.0
 _ZN3KTp27TelepathyHandlerApplicationD1Ev@Base 0.8.0
 _ZN3KTp27TelepathyHandlerApplicationD2Ev@Base 0.8.0
 _ZN3KTp5Debug15installCallbackEbb@Base 0.8.0
 _ZN3KTp7Actions13openLogViewerERK4QUrl@Base 0.8.0
 _ZN3KTp7Actions13openLogViewerERKN2Tp9SharedPtrINS1_7AccountEEERK7QString@Base 0.9.0
 _ZN3KTp7Actions13openLogViewerERKN2Tp9SharedPtrINS1_7AccountEEERKNS2_INS1_7ContactEEE@Base 0.8.0
 _ZN3KTp7Actions14startAudioCallERKN2Tp9SharedPtrINS1_7AccountEEERKNS2_INS1_7ContactEEE@Base 0.8.0
 _ZN3KTp7Actions14startGroupChatERKN2Tp9SharedPtrINS1_7AccountEEERK7QString@Base 0.8.0
 _ZN3KTp7Actions17startFileTransferERKN2Tp9SharedPtrINS1_7AccountEEERKNS2_INS1_7ContactEEERK4QUrl@Base 0.8.0
 _ZN3KTp7Actions17startFileTransferERKN2Tp9SharedPtrINS1_7AccountEEERKNS2_INS1_7ContactEEERK7QString@Base 0.8.0
 _ZN3KTp7Actions19startAudioVideoCallERKN2Tp9SharedPtrINS1_7AccountEEERKNS2_INS1_7ContactEEE@Base 0.8.0
 _ZN3KTp7Actions19startDesktopSharingERKN2Tp9SharedPtrINS1_7AccountEEERKNS2_INS1_7ContactEEE@Base 0.8.0
 _ZN3KTp7Actions25startCollaborativeEditingERKN2Tp9SharedPtrINS1_7AccountEEERK7QStringRK5QListI4KUrlEb@Base 0.8.0
 _ZN3KTp7Actions25startCollaborativeEditingERKN2Tp9SharedPtrINS1_7AccountEEERKNS2_INS1_7ContactEEERK5QListI4KUrlEb@Base 0.8.0
 _ZN3KTp7Actions9startChatERKN2Tp9SharedPtrINS1_7AccountEEERK7QStringb@Base 0.8.0
 _ZN3KTp7Actions9startChatERKN2Tp9SharedPtrINS1_7AccountEEERKNS2_INS1_7ContactEEEb@Base 0.8.0
 _ZN3KTp7Contact11invalidatedEv@Base 0.8.0
 _ZN3KTp7Contact11qt_metacallEN11QMetaObject4CallEiPPv@Base 0.8.0
 _ZN3KTp7Contact11qt_metacastEPKc@Base 0.8.0
 _ZN3KTp7Contact12avatarPixmapEv@Base 0.8.0
 _ZN3KTp7Contact12avatarToGrayER7QPixmap@Base 0.8.0
 _ZN3KTp7Contact15buildAvatarPathERK7QString@Base 0.8.0
 _ZN3KTp7Contact16staticMetaObjectE@Base 0.8.0
 _ZN3KTp7Contact17getCommonElementsERK11QStringListS3_@Base 0.8.0
 _ZN3KTp7Contact17onPresenceChangedERKN2Tp8PresenceE@Base 0.9.0
 _ZN3KTp7Contact21invalidateAvatarCacheEv@Base 0.8.0
 _ZN3KTp7ContactC1EPN2Tp14ContactManagerERKNS1_17ReferencedHandlesERKNS1_8FeaturesERK4QMapI7QString8QVariantE@Base 0.8.0
 _ZN3KTp7ContactC2EPN2Tp14ContactManagerERKNS1_17ReferencedHandlesERKNS1_8FeaturesERK4QMapI7QString8QVariantE@Base 0.8.0
 _ZN3KTp7ContactD0Ev@Base 0.8.0
 _ZN3KTp7ContactD1Ev@Base 0.8.0
 _ZN3KTp7ContactD2Ev@Base 0.8.0
 _ZN3KTp7Message11setPropertyEPKcRK8QVariant@Base 0.8.0
 _ZN3KTp7Message12appendScriptERK7QString@Base 0.8.0
 _ZN3KTp7Message17appendMessagePartERK7QString@Base 0.8.0
 _ZN3KTp7Message18setMainMessagePartERK7QString@Base 0.8.0
 _ZN3KTp7MessageC1EPNS0_7PrivateE@Base 0.8.0
 _ZN3KTp7MessageC1ERKN2Tp15ReceivedMessageERKNS_14MessageContextE@Base 0.8.0
 _ZN3KTp7MessageC1ERKN2Tp7MessageERKNS_14MessageContextE@Base 0.8.0
 _ZN3KTp7MessageC1ERKS0_@Base 0.8.0
 _ZN3KTp7MessageC2EPNS0_7PrivateE@Base 0.8.0
 _ZN3KTp7MessageC2ERKN2Tp15ReceivedMessageERKNS_14MessageContextE@Base 0.8.0
 _ZN3KTp7MessageC2ERKN2Tp7MessageERKNS_14MessageContextE@Base 0.8.0
 _ZN3KTp7MessageC2ERKS0_@Base 0.8.0
 _ZN3KTp7MessageD0Ev@Base 0.8.0
 _ZN3KTp7MessageD1Ev@Base 0.8.0
 _ZN3KTp7MessageD2Ev@Base 0.8.0
 _ZN3KTp7MessageaSERKS0_@Base 0.8.0
 _ZN3KTp8Presence12sortPriorityERKN2Tp22ConnectionPresenceTypeE@Base 0.8.0
 _ZN3KTp8PresenceC1ERKN2Tp8PresenceE@Base 0.8.0
 _ZN3KTp8PresenceC1Ev@Base 0.8.0
 _ZN3KTp8PresenceC2ERKN2Tp8PresenceE@Base 0.8.0
 _ZN3KTp8PresenceC2Ev@Base 0.8.0
 _ZNK3KTp12LogsImporter10metaObjectEv@Base 0.8.0
 _ZNK3KTp12LogsImporter7Private10metaObjectEv@Base 0.8.0
 _ZNK3KTp12LogsImporter7Private14findKopeteLogsERK7QString@Base 0.8.0
 _ZNK3KTp12LogsImporter7Private15parseKopeteTimeERK11QDomElement@Base 0.8.0
 _ZNK3KTp12LogsImporter7Private19accountIdToProtocolERK7QString@Base 0.8.0
 _ZNK3KTp12LogsImporter7Private22accountIdToAccountNameERK7QString@Base 0.8.0
 _ZNK3KTp13PendingWallet10metaObjectEv@Base 0.8.0
 _ZNK3KTp13PendingWallet15walletInterfaceEv@Base 0.8.0
 _ZNK3KTp14ContactFactory9constructEPN2Tp14ContactManagerERKNS1_17ReferencedHandlesERKNS1_8FeaturesERK4QMapI7QString8QVariantE@Base 0.8.0
 _ZNK3KTp14GlobalPresence10metaObjectEv@Base 0.8.0
 _ZNK3KTp14GlobalPresence14accountManagerEv@Base 0.9.0
 _ZNK3KTp14GlobalPresence14onlineAccountsEv@Base 0.8.0
 _ZNK3KTp14GlobalPresence15currentPresenceEv@Base 0.8.0
 _ZNK3KTp14GlobalPresence16connectionStatusEv@Base 0.8.0
 _ZNK3KTp14GlobalPresence17requestedPresenceEv@Base 0.8.0
 _ZNK3KTp14GlobalPresence18hasEnabledAccountsEv@Base 0.8.0
 _ZNK3KTp14GlobalPresence18isChangingPresenceEv@Base 0.8.0
 _ZNK3KTp14GlobalPresence19currentPresenceIconEv@Base 0.9.0
 _ZNK3KTp14GlobalPresence19currentPresenceTypeEv@Base 0.9.0
 _ZNK3KTp14GlobalPresence22currentPresenceMessageEv@Base 0.9.0
 _ZNK3KTp14GlobalPresence23currentPresenceIconNameEv@Base 0.9.0
 _ZNK3KTp14MessageContext7accountEv@Base 0.8.0
 _ZNK3KTp14MessageContext7channelEv@Base 0.8.0
 _ZNK3KTp15OutgoingMessage4textEv@Base 0.8.0
 _ZNK3KTp15OutgoingMessage4typeEv@Base 0.8.0
 _ZNK3KTp15WalletInterface6walletEv@Base 0.8.0
 _ZNK3KTp16MessageProcessor10metaObjectEv@Base 0.8.0
 _ZNK3KTp17CircularCountdown10metaObjectEv@Base 0.8.0
 _ZNK3KTp17CircularCountdown8durationEv@Base 0.8.0
 _ZNK3KTp17CircularCountdown8sizeHintEv@Base 0.8.0
 _ZNK3KTp17ContactInfoDialog10metaObjectEv@Base 0.8.0
 _ZNK3KTp17PersistentContact10metaObjectEv@Base 0.8.0
 _ZNK3KTp17PersistentContact7accountEv@Base 0.8.0
 _ZNK3KTp17PersistentContact7contactEv@Base 0.8.0
 _ZNK3KTp17PersistentContact9accountIdEv@Base 0.8.0
 _ZNK3KTp17PersistentContact9contactIdEv@Base 0.8.0
 _ZNK3KTp20GlobalContactManager10metaObjectEv@Base 0.8.0
 _ZNK3KTp20GlobalContactManager16allKnownContactsEv@Base 0.8.0
 _ZNK3KTp20GlobalContactManager17accountForContactERKN2Tp9SharedPtrINS1_7ContactEEE@Base 0.8.0
 _ZNK3KTp20GlobalContactManager19accountForAccountIdERK7QString@Base 0.8.0
 _ZNK3KTp20GlobalContactManager20accountForConnectionERKN2Tp9SharedPtrINS1_10ConnectionEEE@Base 0.8.0
 _ZNK3KTp20GlobalContactManager21accountForAccountPathERK7QString@Base 0.8.0
 _ZNK3KTp21AbstractMessageFilter10metaObjectEv@Base 0.8.0
 _ZNK3KTp26MessageFilterConfigManager10allPluginsEv@Base 0.8.0
 _ZNK3KTp26MessageFilterConfigManager11configGroupEv@Base 0.8.0
 _ZNK3KTp26MessageFilterConfigManager12sharedConfigEv@Base 0.8.0
 _ZNK3KTp26MessageFilterConfigManager14enabledPluginsEv@Base 0.8.0
 _ZNK3KTp26MessageFilterConfigManager7Private6offersEv@Base 0.8.0
 _ZNK3KTp26ServiceAvailabilityChecker10metaObjectEv@Base 0.8.0
 _ZNK3KTp26ServiceAvailabilityChecker11isAvailableEv@Base 0.8.0
 _ZNK3KTp27TelepathyHandlerApplication10metaObjectEv@Base 0.8.0
 _ZNK3KTp7Contact10metaObjectEv@Base 0.8.0
 _ZNK3KTp7Contact11clientTypesEv@Base 0.8.0
 _ZNK3KTp7Contact18textChatCapabilityEv@Base 0.8.0
 _ZNK3KTp7Contact19audioCallCapabilityEv@Base 0.8.0
 _ZNK3KTp7Contact19videoCallCapabilityEv@Base 0.8.0
 _ZNK3KTp7Contact22fileTransferCapabilityEv@Base 0.8.0
 _ZNK3KTp7Contact23accountUniqueIdentifierEv@Base 0.8.0
 _ZNK3KTp7Contact26dbusTubeServicesCapabilityEv@Base 0.8.0
 _ZNK3KTp7Contact28streamTubeServicesCapabilityEv@Base 0.8.0
 _ZNK3KTp7Contact30collaborativeEditingCapabilityEv@Base 0.8.0
 _ZNK3KTp7Contact8keyCacheEv@Base 0.8.0
 _ZNK3KTp7Contact8presenceEv@Base 0.8.0
 _ZNK3KTp7Message11senderAliasEv@Base 0.8.0
 _ZNK3KTp7Message15finalizedScriptEv@Base 0.8.0
 _ZNK3KTp7Message15mainMessagePartEv@Base 0.8.0
 _ZNK3KTp7Message16finalizedMessageEv@Base 0.8.0
 _ZNK3KTp7Message4timeEv@Base 0.8.0
 _ZNK3KTp7Message4typeEv@Base 0.8.0
 _ZNK3KTp7Message5tokenEv@Base 0.8.0
 _ZNK3KTp7Message6senderEv@Base 0.8.0
 _ZNK3KTp7Message8propertyEPKc@Base 0.8.0
 _ZNK3KTp7Message8senderIdEv@Base 0.8.0
 _ZNK3KTp7Message9directionEv@Base 0.8.0
 _ZNK3KTp7Message9isHistoryEv@Base 0.8.0
 _ZNK3KTp7Message9partsSizeEv@Base 0.8.0
 _ZNK3KTp8Presence13displayStringEv@Base 0.8.0
 _ZNK3KTp8Presence4iconE11QStringListb@Base 0.8.0
 _ZNK3KTp8Presence4iconEb@Base 0.8.0
 _ZNK3KTp8Presence8iconNameEb@Base 0.8.0
 _ZNK3KTp8PresenceltERKS0_@Base 0.8.0
 _ZTIN3KTp10TextParserE@Base 0.8.0
 _ZTIN3KTp12LogsImporter7PrivateE@Base 0.8.0
 _ZTIN3KTp12LogsImporterE@Base 0.8.0
 _ZTIN3KTp13PendingWalletE@Base 0.8.0
 _ZTIN3KTp14ContactFactoryE@Base 0.8.0
 _ZTIN3KTp14GlobalPresenceE@Base 0.8.0
 _ZTIN3KTp14MessageContextE@Base 0.8.0
 _ZTIN3KTp15OutgoingMessageE@Base 0.8.0
 _ZTIN3KTp15WalletInterfaceE@Base 0.8.0
 _ZTIN3KTp16MessageProcessorE@Base 0.8.0
 _ZTIN3KTp17CircularCountdownE@Base 0.8.0
 _ZTIN3KTp17ContactInfoDialogE@Base 0.8.0
 _ZTIN3KTp17PersistentContactE@Base 0.8.0
 _ZTIN3KTp20GlobalContactManagerE@Base 0.8.0
 _ZTIN3KTp21AbstractMessageFilterE@Base 0.8.0
 _ZTIN3KTp26ServiceAvailabilityCheckerE@Base 0.8.0
 _ZTIN3KTp27TelepathyHandlerApplicationE@Base 0.8.0
 _ZTIN3KTp7ContactE@Base 0.8.0
 _ZTIN3KTp7MessageE@Base 0.8.0
 _ZTSN3KTp10TextParserE@Base 0.8.0
 _ZTSN3KTp12LogsImporter7PrivateE@Base 0.8.0
 _ZTSN3KTp12LogsImporterE@Base 0.8.0
 _ZTSN3KTp13PendingWalletE@Base 0.8.0
 _ZTSN3KTp14ContactFactoryE@Base 0.8.0
 _ZTSN3KTp14GlobalPresenceE@Base 0.8.0
 _ZTSN3KTp14MessageContextE@Base 0.8.0
 _ZTSN3KTp15OutgoingMessageE@Base 0.8.0
 _ZTSN3KTp15WalletInterfaceE@Base 0.8.0
 _ZTSN3KTp16MessageProcessorE@Base 0.8.0
 _ZTSN3KTp17CircularCountdownE@Base 0.8.0
 _ZTSN3KTp17ContactInfoDialogE@Base 0.8.0
 _ZTSN3KTp17PersistentContactE@Base 0.8.0
 _ZTSN3KTp20GlobalContactManagerE@Base 0.8.0
 _ZTSN3KTp21AbstractMessageFilterE@Base 0.8.0
 _ZTSN3KTp26ServiceAvailabilityCheckerE@Base 0.8.0
 _ZTSN3KTp27TelepathyHandlerApplicationE@Base 0.8.0
 _ZTSN3KTp7ContactE@Base 0.8.0
 _ZTSN3KTp7MessageE@Base 0.8.0
 _ZTVN3KTp10TextParserE@Base 0.8.0
 _ZTVN3KTp12LogsImporter7PrivateE@Base 0.8.0
 _ZTVN3KTp12LogsImporterE@Base 0.8.0
 _ZTVN3KTp13PendingWalletE@Base 0.8.0
 _ZTVN3KTp14ContactFactoryE@Base 0.8.0
 _ZTVN3KTp14GlobalPresenceE@Base 0.8.0
 _ZTVN3KTp14MessageContextE@Base 0.8.0
 _ZTVN3KTp15OutgoingMessageE@Base 0.8.0
 _ZTVN3KTp15WalletInterfaceE@Base 0.8.0
 _ZTVN3KTp16MessageProcessorE@Base 0.8.0
 _ZTVN3KTp17CircularCountdownE@Base 0.8.0
 _ZTVN3KTp17ContactInfoDialogE@Base 0.8.0
 _ZTVN3KTp17PersistentContactE@Base 0.8.0
 _ZTVN3KTp20GlobalContactManagerE@Base 0.8.0
 _ZTVN3KTp21AbstractMessageFilterE@Base 0.8.0
 _ZTVN3KTp26ServiceAvailabilityCheckerE@Base 0.8.0
 _ZTVN3KTp27TelepathyHandlerApplicationE@Base 0.8.0
 _ZTVN3KTp7ContactE@Base 0.8.0
 _ZTVN3KTp7MessageE@Base 0.8.0
 (c++)"non-virtual thunk to KTp::CircularCountdown::~CircularCountdown()@Base" 0.8.0
 (c++)"non-virtual thunk to KTp::Contact::~Contact()@Base" 0.8.0
 (c++)"non-virtual thunk to KTp::ContactInfoDialog::~ContactInfoDialog()@Base" 0.8.0
 (c++)"non-virtual thunk to KTp::PersistentContact::~PersistentContact()@Base" 0.8.0
