# SymbolsHelper-Confirmed: 4:15.04.2 amd64
libKTpOTR.so.9 libktpotr9 #MINVER#
 _ZN3KTp14ChannelAdapter10setChannelERKN2Tp9SharedPtrINS1_11TextChannelEEE@Base 15.03.80
 _ZN3KTp14ChannelAdapter11acknowledgeERK5QListIN2Tp15ReceivedMessageEE@Base 15.03.80
 _ZN3KTp14ChannelAdapter11messageSentERKN2Tp7MessageE6QFlagsINS1_18MessageSendingFlagEERK7QString@Base 15.03.80
 _ZN3KTp14ChannelAdapter11qt_metacallEN11QMetaObject4CallEiPPv@Base 15.03.80
 _ZN3KTp14ChannelAdapter11qt_metacastEPKc@Base 15.03.80
 _ZN3KTp14ChannelAdapter11textChannelEv@Base 15.03.80
 _ZN3KTp14ChannelAdapter13initializeOTREv@Base 15.03.80
 _ZN3KTp14ChannelAdapter13onMessageSentERK5QListIN2Tp11MessagePartEEjRK7QString@Base 15.03.80
 _ZN3KTp14ChannelAdapter15messageReceivedERKN2Tp15ReceivedMessageE@Base 15.03.80
 _ZN3KTp14ChannelAdapter15setupOTRChannelEv@Base 15.03.80
 _ZN3KTp14ChannelAdapter16sessionRefreshedEv@Base 15.03.80
 _ZN3KTp14ChannelAdapter16setupTextChannelEv@Base 15.03.80
 _ZN3KTp14ChannelAdapter16staticMetaObjectE@Base 15.03.80
 _ZN3KTp14ChannelAdapter16trustFingerprintERK7QStringb@Base 15.03.80
 _ZN3KTp14ChannelAdapter17onMessageReceivedERK5QListIN2Tp11MessagePartEE@Base 15.03.80
 _ZN3KTp14ChannelAdapter19onTrustLevelChangedEj@Base 15.03.80
 _ZN3KTp14ChannelAdapter20otrTrustLevelChangedENS_13OTRTrustLevelES1_@Base 15.03.80
 _ZN3KTp14ChannelAdapter21pendingMessageRemovedERKN2Tp15ReceivedMessageE@Base 15.03.80
 _ZN3KTp14ChannelAdapter23abortPeerAuthenticationEv@Base 15.03.80
 _ZN3KTp14ChannelAdapter23onTrustLevelPropertyGetEPN2Tp16PendingOperationE@Base 15.03.80
 _ZN3KTp14ChannelAdapter23peerAuthenticationErrorEv@Base 15.03.80
 _ZN3KTp14ChannelAdapter24onPendingMessagesRemovedERKN2Tp8UIntListE@Base 15.03.80
 _ZN3KTp14ChannelAdapter25peerAuthenticationAbortedEv@Base 15.03.80
 _ZN3KTp14ChannelAdapter25peerAuthenticationCheatedEv@Base 15.03.80
 _ZN3KTp14ChannelAdapter25respondPeerAuthenticationERK7QString@Base 15.03.80
 _ZN3KTp14ChannelAdapter25startPeerAuthenticationQAERK7QStringS3_@Base 15.03.80
 _ZN3KTp14ChannelAdapter25startPeerAuthenticationSSERK7QString@Base 15.03.80
 _ZN3KTp14ChannelAdapter27peerAuthenticationConcludedEb@Base 15.03.80
 _ZN3KTp14ChannelAdapter28onPendingMessagesPropertyGetEPN2Tp16PendingOperationE@Base 15.03.80
 _ZN3KTp14ChannelAdapter28peerAuthenticationInProgressEv@Base 15.03.80
 _ZN3KTp14ChannelAdapter29onPeerAuthenticationRequestedERK7QString@Base 15.03.80
 _ZN3KTp14ChannelAdapter29peerAuthenticationRequestedQAERK7QString@Base 15.03.80
 _ZN3KTp14ChannelAdapter29peerAuthenticationRequestedSSEv@Base 15.03.80
 _ZN3KTp14ChannelAdapter30onRemoteFingerprintPropertyGetEPN2Tp16PendingOperationE@Base 15.03.80
 _ZN3KTp14ChannelAdapter4sendERK7QStringN2Tp22ChannelTextMessageTypeE6QFlagsINS4_18MessageSendingFlagEE@Base 15.03.80
 _ZN3KTp14ChannelAdapter7stopOTREv@Base 15.03.80
 _ZN3KTp14ChannelAdapterC1ERKN2Tp9SharedPtrINS1_11TextChannelEEEP7QObject@Base 15.03.80
 _ZN3KTp14ChannelAdapterC2ERKN2Tp9SharedPtrINS1_11TextChannelEEEP7QObject@Base 15.03.80
 _ZN3KTp14ChannelAdapterD0Ev@Base 15.03.80
 _ZN3KTp14ChannelAdapterD1Ev@Base 15.03.80
 _ZN3KTp14ChannelAdapterD2Ev@Base 15.03.80
 _ZN3KTp16registerOtrTypesEv@Base 15.03.80
 _ZN3KTp5Utils10isOtrEventERKN2Tp15ReceivedMessageE@Base 15.03.80
 _ZN3KTp5Utils12isOtrMessageERK7QString@Base 15.03.80
 _ZN3KTp5Utils17processOtrMessageERKN2Tp15ReceivedMessageE@Base 15.03.80
 _ZN3KTp5Utils21getPendingMessagesIDsERK5QListIN2Tp15ReceivedMessageEE@Base 15.03.80
 _ZN3KTp5Utils24getOtrProxyObjectPathForERKN2Tp9SharedPtrINS1_11TextChannelEEE@Base 15.03.80
 _ZN3KTp5Utils5getIdERK5QListIN2Tp11MessagePartEE@Base 15.03.80
 _ZN3KTp6Client21ProxyServiceInterface10invalidateEPN2Tp9DBusProxyERK7QStringS7_@Base 15.03.80
 _ZN3KTp6Client21ProxyServiceInterface11qt_metacallEN11QMetaObject4CallEiPPv@Base 15.03.80
 _ZN3KTp6Client21ProxyServiceInterface11qt_metacastEPKc@Base 15.03.80
 _ZN3KTp6Client21ProxyServiceInterface14ProxyConnectedERK15QDBusObjectPath@Base 15.03.80
 _ZN3KTp6Client21ProxyServiceInterface16staticMetaObjectE@Base 15.03.80
 _ZN3KTp6Client21ProxyServiceInterface17ProxyDisconnectedERK15QDBusObjectPath@Base 15.03.80
 _ZN3KTp6Client21ProxyServiceInterface20KeyGenerationStartedERK15QDBusObjectPath@Base 15.03.80
 _ZN3KTp6Client21ProxyServiceInterface21KeyGenerationFinishedERK15QDBusObjectPathb@Base 15.03.80
 _ZN3KTp6Client21ProxyServiceInterfaceC1EPN2Tp9DBusProxyE@Base 15.03.80
 _ZN3KTp6Client21ProxyServiceInterfaceC1ERK15QDBusConnectionRK7QStringS7_P7QObject@Base 15.03.80
 _ZN3KTp6Client21ProxyServiceInterfaceC1ERK7QStringS4_P7QObject@Base 15.03.80
 _ZN3KTp6Client21ProxyServiceInterfaceC1ERKN2Tp17AbstractInterfaceE@Base 15.03.80
 _ZN3KTp6Client21ProxyServiceInterfaceC1ERKN2Tp17AbstractInterfaceEP7QObject@Base 15.03.80
 _ZN3KTp6Client21ProxyServiceInterfaceC2EPN2Tp9DBusProxyE@Base 15.03.80
 _ZN3KTp6Client21ProxyServiceInterfaceC2ERK15QDBusConnectionRK7QStringS7_P7QObject@Base 15.03.80
 _ZN3KTp6Client21ProxyServiceInterfaceC2ERK7QStringS4_P7QObject@Base 15.03.80
 _ZN3KTp6Client21ProxyServiceInterfaceC2ERKN2Tp17AbstractInterfaceE@Base 15.03.80
 _ZN3KTp6Client21ProxyServiceInterfaceC2ERKN2Tp17AbstractInterfaceEP7QObject@Base 15.03.80
 (optional)_ZN3KTp6Client21ProxyServiceInterfaceD0Ev@Base 15.03.80
 (optional)_ZN3KTp6Client21ProxyServiceInterfaceD1Ev@Base 15.03.80
 (optional)_ZN3KTp6Client21ProxyServiceInterfaceD2Ev@Base 15.03.80
 _ZN3KTp6Client33ChannelProxyInterfaceOTRInterface10invalidateEPN2Tp9DBusProxyERK7QStringS7_@Base 15.03.80
 _ZN3KTp6Client33ChannelProxyInterfaceOTRInterface11MessageSentERK5QListIN2Tp11MessagePartEEjRK7QString@Base 15.03.80
 _ZN3KTp6Client33ChannelProxyInterfaceOTRInterface11qt_metacallEN11QMetaObject4CallEiPPv@Base 15.03.80
 _ZN3KTp6Client33ChannelProxyInterfaceOTRInterface11qt_metacastEPKc@Base 15.03.80
 _ZN3KTp6Client33ChannelProxyInterfaceOTRInterface15MessageReceivedERK5QListIN2Tp11MessagePartEE@Base 15.03.80
 _ZN3KTp6Client33ChannelProxyInterfaceOTRInterface16SessionRefreshedEv@Base 15.03.80
 _ZN3KTp6Client33ChannelProxyInterfaceOTRInterface16staticMetaObjectE@Base 15.03.80
 _ZN3KTp6Client33ChannelProxyInterfaceOTRInterface17TrustLevelChangedEj@Base 15.03.80
 _ZN3KTp6Client33ChannelProxyInterfaceOTRInterface22PendingMessagesRemovedERKN2Tp8UIntListE@Base 15.03.80
 _ZN3KTp6Client33ChannelProxyInterfaceOTRInterface23PeerAuthenticationErrorEv@Base 15.03.80
 _ZN3KTp6Client33ChannelProxyInterfaceOTRInterface25PeerAuthenticationAbortedEv@Base 15.03.80
 _ZN3KTp6Client33ChannelProxyInterfaceOTRInterface25PeerAuthenticationCheatedEv@Base 15.03.80
 _ZN3KTp6Client33ChannelProxyInterfaceOTRInterface27PeerAuthenticationConcludedEb@Base 15.03.80
 _ZN3KTp6Client33ChannelProxyInterfaceOTRInterface27PeerAuthenticationRequestedERK7QString@Base 15.03.80
 _ZN3KTp6Client33ChannelProxyInterfaceOTRInterface28PeerAuthenticationInProgressEv@Base 15.03.80
 _ZN3KTp6Client33ChannelProxyInterfaceOTRInterfaceC1EPN2Tp9DBusProxyE@Base 15.03.80
 _ZN3KTp6Client33ChannelProxyInterfaceOTRInterfaceC1ERK15QDBusConnectionRK7QStringS7_P7QObject@Base 15.03.80
 _ZN3KTp6Client33ChannelProxyInterfaceOTRInterfaceC1ERK7QStringS4_P7QObject@Base 15.03.80
 _ZN3KTp6Client33ChannelProxyInterfaceOTRInterfaceC1ERKN2Tp17AbstractInterfaceE@Base 15.03.80
 _ZN3KTp6Client33ChannelProxyInterfaceOTRInterfaceC1ERKN2Tp17AbstractInterfaceEP7QObject@Base 15.03.80
 _ZN3KTp6Client33ChannelProxyInterfaceOTRInterfaceC2EPN2Tp9DBusProxyE@Base 15.03.80
 _ZN3KTp6Client33ChannelProxyInterfaceOTRInterfaceC2ERK15QDBusConnectionRK7QStringS7_P7QObject@Base 15.03.80
 _ZN3KTp6Client33ChannelProxyInterfaceOTRInterfaceC2ERK7QStringS4_P7QObject@Base 15.03.80
 _ZN3KTp6Client33ChannelProxyInterfaceOTRInterfaceC2ERKN2Tp17AbstractInterfaceE@Base 15.03.80
 _ZN3KTp6Client33ChannelProxyInterfaceOTRInterfaceC2ERKN2Tp17AbstractInterfaceEP7QObject@Base 15.03.80
 (optional)_ZN3KTp6Client33ChannelProxyInterfaceOTRInterfaceD0Ev@Base 15.03.80
 (optional)_ZN3KTp6Client33ChannelProxyInterfaceOTRInterfaceD1Ev@Base 15.03.80
 (optional)_ZN3KTp6Client33ChannelProxyInterfaceOTRInterfaceD2Ev@Base 15.03.80
 _ZN3KTpeqERKNS_15FingerprintInfoES2_@Base 15.03.80
 _ZN3KTplsER13QDBusArgumentRKNS_15FingerprintInfoE@Base 15.03.80
 _ZN3KTprsERK13QDBusArgumentRNS_15FingerprintInfoE@Base 15.03.80
 _ZNK3KTp14ChannelAdapter10metaObjectEv@Base 15.03.80
 _ZNK3KTp14ChannelAdapter12messageQueueEv@Base 15.03.80
 _ZNK3KTp14ChannelAdapter13isOTRsupporedEv@Base 15.03.80
 _ZNK3KTp14ChannelAdapter13otrTrustLevelEv@Base 15.03.80
 _ZNK3KTp14ChannelAdapter17remoteFingerprintEv@Base 15.03.80
 _ZNK3KTp14ChannelAdapter18messagePartSupportEv@Base 15.03.80
 _ZNK3KTp14ChannelAdapter19supportsMessageTypeEN2Tp22ChannelTextMessageTypeE@Base 15.03.80
 _ZNK3KTp14ChannelAdapter21supportedContentTypesEv@Base 15.03.80
 _ZNK3KTp14ChannelAdapter21supportedMessageTypesEv@Base 15.03.80
 _ZNK3KTp14ChannelAdapter24deliveryReportingSupportEv@Base 15.03.80
 _ZNK3KTp14ChannelAdapter7isValidEv@Base 15.03.80
 _ZNK3KTp6Client21ProxyServiceInterface10metaObjectEv@Base 15.03.80
 _ZNK3KTp6Client33ChannelProxyInterfaceOTRInterface10metaObjectEv@Base 15.03.80
 _ZTIN2Tp10RefCountedE@Base 15.03.80
 _ZTIN3KTp14ChannelAdapterE@Base 15.03.80
 _ZTIN3KTp6Client21ProxyServiceInterfaceE@Base 15.03.80
 _ZTIN3KTp6Client33ChannelProxyInterfaceOTRInterfaceE@Base 15.03.80
 _ZTSN2Tp10RefCountedE@Base 15.03.80
 _ZTSN3KTp14ChannelAdapterE@Base 15.03.80
 _ZTSN3KTp6Client21ProxyServiceInterfaceE@Base 15.03.80
 _ZTSN3KTp6Client33ChannelProxyInterfaceOTRInterfaceE@Base 15.03.80
 _ZTVN2Tp10RefCountedE@Base 15.03.80
 _ZTVN3KTp14ChannelAdapterE@Base 15.03.80
 _ZTVN3KTp6Client21ProxyServiceInterfaceE@Base 15.03.80
 _ZTVN3KTp6Client33ChannelProxyInterfaceOTRInterfaceE@Base 15.03.80
 (c++)"non-virtual thunk to KTp::ChannelAdapter::~ChannelAdapter()@Base" 15.03.80
